---
triple:          'x86_64-apple-darwin'
binary-path:     './basic_application'
relocations:
  - { offsetInCU: 0x3F, offset: 0x3F, size: 0x8, addend: 0x0, symName: __ZL13initial_world, symObjAddr: 0x5C0D8, symBinAddr: 0x10001D040, symSize: 0x0 }
  - { offsetInCU: 0x2B3, offset: 0x2B3, size: 0x8, addend: 0x0, symName: __ZN4ezglL5WHITEE, symObjAddr: 0x9640, symBinAddr: 0x10001A1C0, symSize: 0x0 }
  - { offsetInCU: 0x368, offset: 0x368, size: 0x8, addend: 0x0, symName: __ZN4ezglL5BLACKE, symObjAddr: 0x9644, symBinAddr: 0x10001A1C4, symSize: 0x0 }
  - { offsetInCU: 0x381, offset: 0x381, size: 0x8, addend: 0x0, symName: __ZN4ezglL7MAGENTAE, symObjAddr: 0x9648, symBinAddr: 0x10001A1C8, symSize: 0x0 }
  - { offsetInCU: 0x39A, offset: 0x39A, size: 0x8, addend: 0x0, symName: __ZN4ezglL4BLUEE, symObjAddr: 0x964C, symBinAddr: 0x10001A1CC, symSize: 0x0 }
  - { offsetInCU: 0x3B3, offset: 0x3B3, size: 0x8, addend: 0x0, symName: __ZN4ezglL5GREENE, symObjAddr: 0x9650, symBinAddr: 0x10001A1D0, symSize: 0x0 }
  - { offsetInCU: 0x3CC, offset: 0x3CC, size: 0x8, addend: 0x0, symName: __ZN4ezglL3REDE, symObjAddr: 0x9654, symBinAddr: 0x10001A1D4, symSize: 0x0 }
  - { offsetInCU: 0x3E5, offset: 0x3E5, size: 0x8, addend: 0x0, symName: __ZN4ezglL10DARK_GREENE, symObjAddr: 0x9658, symBinAddr: 0x10001A1D8, symSize: 0x0 }
  - { offsetInCU: 0x130D, offset: 0x130D, size: 0x8, addend: 0x0, symName: __ZN4ezglpLERNS_9rectangleERKNS_7point2dE, symObjAddr: 0x3E80, symBinAddr: 0x1000055C0, symSize: 0x40 }
  - { offsetInCU: 0x1347, offset: 0x1347, size: 0x8, addend: 0x0, symName: __ZN4ezglplERKNS_7point2dES2_, symObjAddr: 0x4190, symBinAddr: 0x1000058D0, symSize: 0x50 }
  - { offsetInCU: 0x1381, offset: 0x1381, size: 0x8, addend: 0x0, symName: __ZN4ezglpLERNS_7point2dERKS0_, symObjAddr: 0x41E0, symBinAddr: 0x100005920, symSize: 0x40 }
  - { offsetInCU: 0x747D, offset: 0x747D, size: 0x8, addend: 0x0, symName: __ZNSt3__16chronogtB8ue170006IxNS_5ratioILl1ELl1000EEExS3_EEbRKNS0_8durationIT_T0_EERKNS4_IT1_T2_EE, symObjAddr: 0x7A30, symBinAddr: 0x100009170, symSize: 0x30 }
  - { offsetInCU: 0x74DE, offset: 0x74DE, size: 0x8, addend: 0x0, symName: __ZNSt3__16chronoltB8ue170006IxNS_5ratioILl1ELl1000EEEeNS2_ILl1ELl1EEEEEbRKNS0_8durationIT_T0_EERKNS5_IT1_T2_EE, symObjAddr: 0x7AA0, symBinAddr: 0x1000091E0, symSize: 0x30 }
  - { offsetInCU: 0x753F, offset: 0x753F, size: 0x8, addend: 0x0, symName: __ZNSt3__16chrono13duration_castB8ue170006INS0_8durationIxNS_5ratioILl1ELl1000000000EEEEExNS3_ILl1ELl1000EEEEENS_9enable_ifIXsr13__is_durationIT_EE5valueES8_E4typeERKNS2_IT0_T1_EE, symObjAddr: 0x7AD0, symBinAddr: 0x100009210, symSize: 0x30 }
  - { offsetInCU: 0x7586, offset: 0x7586, size: 0x8, addend: 0x0, symName: __ZNSt3__16chronoltB8ue170006IxNS_5ratioILl1ELl1000000000EEExNS2_ILl1ELl1000EEEEEbRKNS0_8durationIT_T0_EERKNS5_IT1_T2_EE, symObjAddr: 0x7B00, symBinAddr: 0x100009240, symSize: 0x30 }
  - { offsetInCU: 0x75E7, offset: 0x75E7, size: 0x8, addend: 0x0, symName: __ZNSt3__16chronoltB8ue170006IxNS_5ratioILl1ELl1000EEExS3_EEbRKNS0_8durationIT_T0_EERKNS4_IT1_T2_EE, symObjAddr: 0x7B90, symBinAddr: 0x1000092D0, symSize: 0x30 }
  - { offsetInCU: 0x76C5, offset: 0x76C5, size: 0x8, addend: 0x0, symName: __ZNSt3__16chrono13duration_castB8ue170006INS0_8durationIeNS_5ratioILl1ELl1000EEEEExS4_EENS_9enable_ifIXsr13__is_durationIT_EE5valueES7_E4typeERKNS2_IT0_T1_EE, symObjAddr: 0x7DB0, symBinAddr: 0x1000094F0, symSize: 0x30 }
  - { offsetInCU: 0x7757, offset: 0x7757, size: 0x8, addend: 0x0, symName: __ZNSt3__16chrono13duration_castB8ue170006INS0_8durationIeNS_5ratioILl1ELl1000EEEEEeNS3_ILl1ELl1EEEEENS_9enable_ifIXsr13__is_durationIT_EE5valueES8_E4typeERKNS2_IT0_T1_EE, symObjAddr: 0x7EB0, symBinAddr: 0x1000095F0, symSize: 0x30 }
  - { offsetInCU: 0x7B13, offset: 0x7B13, size: 0x8, addend: 0x0, symName: __ZNSt3__124__put_character_sequenceB8ue170006IcNS_11char_traitsIcEEEERNS_13basic_ostreamIT_T0_EES7_PKS4_m, symObjAddr: 0x80F0, symBinAddr: 0x100009830, symSize: 0x1F0 }
  - { offsetInCU: 0xB4F1, offset: 0xB4F1, size: 0x8, addend: 0x0, symName: __ZNSt3__111this_thread9sleep_forB8ue170006IxNS_5ratioILl1ELl1000EEEEEvRKNS_6chrono8durationIT_T0_EE, symObjAddr: 0x4220, symBinAddr: 0x100005960, symSize: 0xD0 }
  - { offsetInCU: 0xB556, offset: 0xB556, size: 0x8, addend: 0x0, symName: __ZNSt3__1lsB8ue170006INS_11char_traitsIcEEEERNS_13basic_ostreamIcT_EES6_PKc, symObjAddr: 0x4510, symBinAddr: 0x100005C50, symSize: 0x40 }
  - { offsetInCU: 0xB59C, offset: 0xB59C, size: 0x8, addend: 0x0, symName: __ZNSt3__14endlB8ue170006IcNS_11char_traitsIcEEEERNS_13basic_ostreamIT_T0_EES7_, symObjAddr: 0x4570, symBinAddr: 0x100005CB0, symSize: 0x50 }
  - { offsetInCU: 0xB5DC, offset: 0xB5DC, size: 0x8, addend: 0x0, symName: __ZNSt3__1plB8ue170006IcNS_11char_traitsIcEENS_9allocatorIcEEEENS_12basic_stringIT_T0_T1_EEPKS6_OS9_, symObjAddr: 0x47F0, symBinAddr: 0x100005F30, symSize: 0x50 }
  - { offsetInCU: 0xB634, offset: 0xB634, size: 0x8, addend: 0x0, symName: __ZNSt3__112__to_addressB8ue170006IKcEEPT_S3_, symObjAddr: 0x4A50, symBinAddr: 0x100006190, symSize: 0x10 }
  - { offsetInCU: 0xB69C, offset: 0xB69C, size: 0x8, addend: 0x0, symName: __ZNSt3__13maxB8ue170006IdEERKT_S3_S3_, symObjAddr: 0x4D00, symBinAddr: 0x100006440, symSize: 0x30 }
  - { offsetInCU: 0xB6DF, offset: 0xB6DF, size: 0x8, addend: 0x0, symName: __ZNSt3__13maxB8ue170006IdNS_6__lessIvvEEEERKT_S5_S5_T0_, symObjAddr: 0x4D30, symBinAddr: 0x100006470, symSize: 0x50 }
  - { offsetInCU: 0xB7AF, offset: 0xB7AF, size: 0x8, addend: 0x0, symName: __ZNSt3__13minB8ue170006IdEERKT_S3_S3_, symObjAddr: 0x4DB0, symBinAddr: 0x1000064F0, symSize: 0x30 }
  - { offsetInCU: 0xB7F2, offset: 0xB7F2, size: 0x8, addend: 0x0, symName: __ZNSt3__13minB8ue170006IdNS_6__lessIvvEEEERKT_S5_S5_T0_, symObjAddr: 0x4DE0, symBinAddr: 0x100006520, symSize: 0x50 }
  - { offsetInCU: 0xB84C, offset: 0xB84C, size: 0x8, addend: 0x0, symName: __ZNSt3__118__constexpr_strlenB8ue170006EPKc, symObjAddr: 0x4FC0, symBinAddr: 0x100006700, symSize: 0x20 }
  - { offsetInCU: 0xB878, offset: 0xB878, size: 0x8, addend: 0x0, symName: __ZNSt3__122__make_exception_guardB8ue170006INS_6vectorINS_12basic_stringIcNS_11char_traitsIcEENS_9allocatorIcEEEENS5_IS7_EEE16__destroy_vectorEEENS_28__exception_guard_exceptionsIT_EESC_, symObjAddr: 0x5120, symBinAddr: 0x100006860, symSize: 0x40 }
  - { offsetInCU: 0xB8AD, offset: 0xB8AD, size: 0x8, addend: 0x0, symName: __ZNSt3__119__allocate_at_leastB8ue170006INS_9allocatorINS_12basic_stringIcNS_11char_traitsIcEENS1_IcEEEEEEEENS_19__allocation_resultINS_16allocator_traitsIT_E7pointerEEERSA_m, symObjAddr: 0x5500, symBinAddr: 0x100006C40, symSize: 0x40 }
  - { offsetInCU: 0xB8F0, offset: 0xB8F0, size: 0x8, addend: 0x0, symName: __ZNSt3__13minB8ue170006ImEERKT_S3_S3_, symObjAddr: 0x5620, symBinAddr: 0x100006D60, symSize: 0x30 }
  - { offsetInCU: 0xBB34, offset: 0xBB34, size: 0x8, addend: 0x0, symName: __ZNSt3__13minB8ue170006ImNS_6__lessIvvEEEERKT_S5_S5_T0_, symObjAddr: 0x56A0, symBinAddr: 0x100006DE0, symSize: 0x50 }
  - { offsetInCU: 0xBB8E, offset: 0xBB8E, size: 0x8, addend: 0x0, symName: __ZNSt3__120__throw_length_errorB8ue170006EPKc, symObjAddr: 0x5780, symBinAddr: 0x100006EC0, symSize: 0x70 }
  - { offsetInCU: 0xBBB8, offset: 0xBBB8, size: 0x8, addend: 0x0, symName: __ZNSt3__117__libcpp_allocateB8ue170006Emm, symObjAddr: 0x58F0, symBinAddr: 0x100007030, symSize: 0x20 }
  - { offsetInCU: 0xBBF5, offset: 0xBBF5, size: 0x8, addend: 0x0, symName: __ZNSt3__121__libcpp_operator_newB8ue170006IJmEEEPvDpT_, symObjAddr: 0x5910, symBinAddr: 0x100007050, symSize: 0x20 }
  - { offsetInCU: 0xBC2E, offset: 0xBC2E, size: 0x8, addend: 0x0, symName: __ZNSt3__112__to_addressB8ue170006INS_12basic_stringIcNS_11char_traitsIcEENS_9allocatorIcEEEEEEPT_S8_, symObjAddr: 0x5A10, symBinAddr: 0x100007150, symSize: 0x10 }
  - { offsetInCU: 0xBC63, offset: 0xBC63, size: 0x8, addend: 0x0, symName: __ZNSt3__130__uninitialized_allocator_copyB8ue170006INS_9allocatorINS_12basic_stringIcNS_11char_traitsIcEENS1_IcEEEEEEPKS6_S9_PS6_EET2_RT_T0_T1_SB_, symObjAddr: 0x5AA0, symBinAddr: 0x1000071E0, symSize: 0x80 }
  - { offsetInCU: 0xBD00, offset: 0xBD00, size: 0x8, addend: 0x0, symName: __ZNSt3__114__unwrap_rangeB8ue170006IPKNS_12basic_stringIcNS_11char_traitsIcEENS_9allocatorIcEEEES8_EENS_4pairIT0_SA_EET_SC_, symObjAddr: 0x5B80, symBinAddr: 0x1000072C0, symSize: 0x50 }
  - { offsetInCU: 0xBD4C, offset: 0xBD4C, size: 0x8, addend: 0x0, symName: __ZNSt3__135__uninitialized_allocator_copy_implB8ue170006INS_9allocatorINS_12basic_stringIcNS_11char_traitsIcEENS1_IcEEEEEEPKS6_S9_PS6_EET2_RT_T0_T1_SB_, symObjAddr: 0x5BD0, symBinAddr: 0x100007310, symSize: 0x100 }
  - { offsetInCU: 0xBDEA, offset: 0xBDEA, size: 0x8, addend: 0x0, symName: __ZNSt3__113__unwrap_iterB8ue170006IPNS_12basic_stringIcNS_11char_traitsIcEENS_9allocatorIcEEEENS_18__unwrap_iter_implIS7_Lb1EEELi0EEEDTclsrT0_8__unwrapclsr3stdE7declvalIT_EEEESB_, symObjAddr: 0x5CD0, symBinAddr: 0x100007410, symSize: 0x20 }
  - { offsetInCU: 0xBE2E, offset: 0xBE2E, size: 0x8, addend: 0x0, symName: __ZNSt3__113__rewrap_iterB8ue170006IPNS_12basic_stringIcNS_11char_traitsIcEENS_9allocatorIcEEEES7_NS_18__unwrap_iter_implIS7_Lb1EEEEET_SA_T0_, symObjAddr: 0x5CF0, symBinAddr: 0x100007430, symSize: 0x40 }
  - { offsetInCU: 0xBE83, offset: 0xBE83, size: 0x8, addend: 0x0, symName: __ZNSt3__19make_pairB8ue170006IPKNS_12basic_stringIcNS_11char_traitsIcEENS_9allocatorIcEEEES8_EENS_4pairINS_18__unwrap_ref_decayIT_E4typeENSA_IT0_E4typeEEEOSB_OSE_, symObjAddr: 0x5D30, symBinAddr: 0x100007470, symSize: 0x30 }
  - { offsetInCU: 0xBED2, offset: 0xBED2, size: 0x8, addend: 0x0, symName: __ZNSt3__113__unwrap_iterB8ue170006IPKNS_12basic_stringIcNS_11char_traitsIcEENS_9allocatorIcEEEENS_18__unwrap_iter_implIS8_Lb1EEELi0EEEDTclsrT0_8__unwrapclsr3stdE7declvalIT_EEEESC_, symObjAddr: 0x5D60, symBinAddr: 0x1000074A0, symSize: 0x20 }
  - { offsetInCU: 0xC03D, offset: 0xC03D, size: 0x8, addend: 0x0, symName: __ZNSt3__112__to_addressB8ue170006IKNS_12basic_stringIcNS_11char_traitsIcEENS_9allocatorIcEEEEEEPT_S9_, symObjAddr: 0x5E00, symBinAddr: 0x100007540, symSize: 0x10 }
  - { offsetInCU: 0xC072, offset: 0xC072, size: 0x8, addend: 0x0, symName: __ZNSt3__122__make_exception_guardB8ue170006INS_29_AllocatorDestroyRangeReverseINS_9allocatorINS_12basic_stringIcNS_11char_traitsIcEENS2_IcEEEEEEPS7_EEEENS_28__exception_guard_exceptionsIT_EESC_, symObjAddr: 0x5E10, symBinAddr: 0x100007550, symSize: 0x60 }
  - { offsetInCU: 0xC0A7, offset: 0xC0A7, size: 0x8, addend: 0x0, symName: __ZNSt3__119__allocator_destroyB8ue170006INS_9allocatorINS_12basic_stringIcNS_11char_traitsIcEENS1_IcEEEEEENS_16reverse_iteratorIPS6_EESA_EEvRT_T0_T1_, symObjAddr: 0x60A0, symBinAddr: 0x1000077E0, symSize: 0x70 }
  - { offsetInCU: 0xC10A, offset: 0xC10A, size: 0x8, addend: 0x0, symName: __ZNSt3__1neB8ue170006IPNS_12basic_stringIcNS_11char_traitsIcEENS_9allocatorIcEEEES7_EEbRKNS_16reverse_iteratorIT_EERKNS8_IT0_EE, symObjAddr: 0x6140, symBinAddr: 0x100007880, symSize: 0x40 }
  - { offsetInCU: 0xC156, offset: 0xC156, size: 0x8, addend: 0x0, symName: __ZNSt3__112__to_addressB8ue170006INS_16reverse_iteratorIPNS_12basic_stringIcNS_11char_traitsIcEENS_9allocatorIcEEEEEEvEEu7__decayIDTclsr19__to_address_helperIT_EE6__callclsr3stdE7declvalIRKSA_EEEEESC_, symObjAddr: 0x61B0, symBinAddr: 0x1000078F0, symSize: 0x20 }
  - { offsetInCU: 0xC208, offset: 0xC208, size: 0x8, addend: 0x0, symName: __ZNSt3__119__libcpp_deallocateB8ue170006EPvmm, symObjAddr: 0x6650, symBinAddr: 0x100007D90, symSize: 0x30 }
  - { offsetInCU: 0xC250, offset: 0xC250, size: 0x8, addend: 0x0, symName: __ZNSt3__127__do_deallocate_handle_sizeB8ue170006IJEEEvPvmDpT_, symObjAddr: 0x6680, symBinAddr: 0x100007DC0, symSize: 0x20 }
  - { offsetInCU: 0xC28E, offset: 0xC28E, size: 0x8, addend: 0x0, symName: __ZNSt3__124__libcpp_operator_deleteB8ue170006IJPvEEEvDpT_, symObjAddr: 0x66A0, symBinAddr: 0x100007DE0, symSize: 0x20 }
  - { offsetInCU: 0xC2C3, offset: 0xC2C3, size: 0x8, addend: 0x0, symName: __ZNSt3__122__make_exception_guardB8ue170006INS_6vectorIN4ezgl7point2dENS_9allocatorIS3_EEE16__destroy_vectorEEENS_28__exception_guard_exceptionsIT_EES9_, symObjAddr: 0x6840, symBinAddr: 0x100007F80, symSize: 0x40 }
  - { offsetInCU: 0xC2F8, offset: 0xC2F8, size: 0x8, addend: 0x0, symName: __ZNSt3__119__allocate_at_leastB8ue170006INS_9allocatorIN4ezgl7point2dEEEEENS_19__allocation_resultINS_16allocator_traitsIT_E7pointerEEERS7_m, symObjAddr: 0x6C20, symBinAddr: 0x100008360, symSize: 0x40 }
  - { offsetInCU: 0xC33B, offset: 0xC33B, size: 0x8, addend: 0x0, symName: __ZNSt3__112__to_addressB8ue170006IN4ezgl7point2dEEEPT_S4_, symObjAddr: 0x6F00, symBinAddr: 0x100008640, symSize: 0x10 }
  - { offsetInCU: 0xC370, offset: 0xC370, size: 0x8, addend: 0x0, symName: __ZNSt3__130__uninitialized_allocator_copyB8ue170006INS_9allocatorIN4ezgl7point2dEEEPKS3_S6_PS3_EET2_RT_T0_T1_S8_, symObjAddr: 0x6F90, symBinAddr: 0x1000086D0, symSize: 0x80 }
  - { offsetInCU: 0xC40D, offset: 0xC40D, size: 0x8, addend: 0x0, symName: __ZNSt3__114__unwrap_rangeB8ue170006IPKN4ezgl7point2dES4_EENS_4pairIT0_S6_EET_S8_, symObjAddr: 0x7070, symBinAddr: 0x1000087B0, symSize: 0x50 }
  - { offsetInCU: 0xC459, offset: 0xC459, size: 0x8, addend: 0x0, symName: __ZNSt3__135__uninitialized_allocator_copy_implB8ue170006INS_9allocatorIN4ezgl7point2dEEEKS3_S3_S3_LPv0EEEPT2_RT_PT0_SC_S8_, symObjAddr: 0x70C0, symBinAddr: 0x100008800, symSize: 0x30 }
  - { offsetInCU: 0xC4DA, offset: 0xC4DA, size: 0x8, addend: 0x0, symName: __ZNSt3__113__unwrap_iterB8ue170006IPN4ezgl7point2dENS_18__unwrap_iter_implIS3_Lb1EEELi0EEEDTclsrT0_8__unwrapclsr3stdE7declvalIT_EEEES7_, symObjAddr: 0x70F0, symBinAddr: 0x100008830, symSize: 0x20 }
  - { offsetInCU: 0xC51E, offset: 0xC51E, size: 0x8, addend: 0x0, symName: __ZNSt3__113__rewrap_iterB8ue170006IPN4ezgl7point2dES3_NS_18__unwrap_iter_implIS3_Lb1EEEEET_S6_T0_, symObjAddr: 0x7110, symBinAddr: 0x100008850, symSize: 0x40 }
  - { offsetInCU: 0xC573, offset: 0xC573, size: 0x8, addend: 0x0, symName: __ZNSt3__19make_pairB8ue170006IPKN4ezgl7point2dES4_EENS_4pairINS_18__unwrap_ref_decayIT_E4typeENS6_IT0_E4typeEEEOS7_OSA_, symObjAddr: 0x7150, symBinAddr: 0x100008890, symSize: 0x30 }
  - { offsetInCU: 0xC5C2, offset: 0xC5C2, size: 0x8, addend: 0x0, symName: __ZNSt3__113__unwrap_iterB8ue170006IPKN4ezgl7point2dENS_18__unwrap_iter_implIS4_Lb1EEELi0EEEDTclsrT0_8__unwrapclsr3stdE7declvalIT_EEEES8_, symObjAddr: 0x7180, symBinAddr: 0x1000088C0, symSize: 0x20 }
  - { offsetInCU: 0xC72D, offset: 0xC72D, size: 0x8, addend: 0x0, symName: __ZNSt3__112__to_addressB8ue170006IKN4ezgl7point2dEEEPT_S5_, symObjAddr: 0x7220, symBinAddr: 0x100008960, symSize: 0x10 }
  - { offsetInCU: 0xC762, offset: 0xC762, size: 0x8, addend: 0x0, symName: __ZNSt3__14copyB8ue170006IPKN4ezgl7point2dEPS2_EET0_T_S7_S6_, symObjAddr: 0x7230, symBinAddr: 0x100008970, symSize: 0x40 }
  - { offsetInCU: 0xC7BC, offset: 0xC7BC, size: 0x8, addend: 0x0, symName: __ZNSt3__16__copyB8ue170006INS_17_ClassicAlgPolicyEPKN4ezgl7point2dES5_PS3_EENS_4pairIT0_T2_EES8_T1_S9_, symObjAddr: 0x7270, symBinAddr: 0x1000089B0, symSize: 0x40 }
  - { offsetInCU: 0xC828, offset: 0xC828, size: 0x8, addend: 0x0, symName: __ZNSt3__123__dispatch_copy_or_moveB8ue170006INS_17_ClassicAlgPolicyENS_11__copy_loopIS1_EENS_14__copy_trivialEPKN4ezgl7point2dES8_PS6_EENS_4pairIT2_T4_EESB_T3_SC_, symObjAddr: 0x72B0, symBinAddr: 0x1000089F0, symSize: 0x40 }
  - { offsetInCU: 0xC8A6, offset: 0xC8A6, size: 0x8, addend: 0x0, symName: __ZNSt3__121__unwrap_and_dispatchB8ue170006INS_10__overloadINS_11__copy_loopINS_17_ClassicAlgPolicyEEENS_14__copy_trivialEEEPKN4ezgl7point2dESA_PS8_Li0EEENS_4pairIT0_T2_EESD_T1_SE_, symObjAddr: 0x72F0, symBinAddr: 0x100008A30, symSize: 0xB0 }
  - { offsetInCU: 0xCA7E, offset: 0xCA7E, size: 0x8, addend: 0x0, symName: __ZNSt3__19make_pairB8ue170006IPKN4ezgl7point2dEPS2_EENS_4pairINS_18__unwrap_ref_decayIT_E4typeENS7_IT0_E4typeEEEOS8_OSB_, symObjAddr: 0x73E0, symBinAddr: 0x100008B20, symSize: 0x30 }
  - { offsetInCU: 0xCACD, offset: 0xCACD, size: 0x8, addend: 0x0, symName: __ZNSt3__114__rewrap_rangeB8ue170006IPKN4ezgl7point2dES4_EET_S5_T0_, symObjAddr: 0x7410, symBinAddr: 0x100008B50, symSize: 0x30 }
  - { offsetInCU: 0xCB19, offset: 0xCB19, size: 0x8, addend: 0x0, symName: __ZNSt3__119__copy_trivial_implB8ue170006IKN4ezgl7point2dES2_EENS_4pairIPT_PT0_EES6_S6_S8_, symObjAddr: 0x7440, symBinAddr: 0x100008B80, symSize: 0x70 }
  - { offsetInCU: 0xCB81, offset: 0xCB81, size: 0x8, addend: 0x0, symName: __ZNSt3__119__constexpr_memmoveB8ue170006IN4ezgl7point2dEKS2_Li0EEEPT_S5_PT0_NS_15__element_countE, symObjAddr: 0x74B0, symBinAddr: 0x100008BF0, symSize: 0x50 }
  - { offsetInCU: 0xCBEF, offset: 0xCBEF, size: 0x8, addend: 0x0, symName: __ZNSt3__19make_pairB8ue170006IRPKN4ezgl7point2dEPS2_EENS_4pairINS_18__unwrap_ref_decayIT_E4typeENS8_IT0_E4typeEEEOS9_OSC_, symObjAddr: 0x7500, symBinAddr: 0x100008C40, symSize: 0x30 }
  - { offsetInCU: 0xCC3E, offset: 0xCC3E, size: 0x8, addend: 0x0, symName: __ZNSt3__113__rewrap_iterB8ue170006IPKN4ezgl7point2dES4_NS_18__unwrap_iter_implIS4_Lb1EEEEET_S7_T0_, symObjAddr: 0x75F0, symBinAddr: 0x100008D30, symSize: 0x40 }
  - { offsetInCU: 0xCF03, offset: 0xCF03, size: 0x8, addend: 0x0, symName: __ZNSt3__116__pad_and_outputB8ue170006IcNS_11char_traitsIcEEEENS_19ostreambuf_iteratorIT_T0_EES6_PKS4_S8_S8_RNS_8ios_baseES4_, symObjAddr: 0x8300, symBinAddr: 0x100009A40, symSize: 0x220 }
  - { offsetInCU: 0xCFD3, offset: 0xCFD3, size: 0x8, addend: 0x0, symName: __ZNSt3__19use_facetB8ue170006INS_5ctypeIcEEEERKT_RKNS_6localeE, symObjAddr: 0x8870, symBinAddr: 0x100009FB0, symSize: 0x30 }
  - { offsetInCU: 0xDA03, offset: 0xDA03, size: 0x8, addend: 0x0, symName: __ZSt28__throw_bad_array_new_lengthB8ue170006v, symObjAddr: 0x58B0, symBinAddr: 0x100006FF0, symSize: 0x40 }
  - { offsetInCU: 0xE128, offset: 0xE128, size: 0x8, addend: 0x0, symName: __ZNKSt3__16chrono13__duration_ltINS0_8durationIxNS_5ratioILl1ELl1000EEEEENS2_IeNS3_ILl1ELl1EEEEEEclB8ue170006ERKS5_RKS7_, symObjAddr: 0x7C90, symBinAddr: 0x1000093D0, symSize: 0x70 }
  - { offsetInCU: 0xE1A5, offset: 0xE1A5, size: 0x8, addend: 0x0, symName: __ZNKSt3__16chrono15__duration_castINS0_8durationIeNS_5ratioILl1ELl1EEEEENS2_IeNS3_ILl1ELl1000EEEEENS3_ILl1000ELl1EEELb0ELb1EEclB8ue170006ERKS5_, symObjAddr: 0x7EE0, symBinAddr: 0x100009620, symSize: 0x40 }
  - { offsetInCU: 0xE211, offset: 0xE211, size: 0x8, addend: 0x0, symName: __ZNKSt3__16chrono15__duration_castINS0_8durationIxNS_5ratioILl1ELl1000EEEEENS2_IxNS3_ILl1ELl1000000000EEEEENS3_ILl1000000ELl1EEELb0ELb1EEclB8ue170006ERKS5_, symObjAddr: 0x7F30, symBinAddr: 0x100009670, symSize: 0x40 }
  - { offsetInCU: 0xE25A, offset: 0xE25A, size: 0x8, addend: 0x0, symName: __ZNKSt3__16chrono13__duration_ltINS0_8durationIxNS_5ratioILl1ELl1000000000EEEEENS2_IxNS3_ILl1ELl1000EEEEEEclB8ue170006ERKS5_RKS7_, symObjAddr: 0x7FC0, symBinAddr: 0x100009700, symSize: 0x60 }
  - { offsetInCU: 0x106F4, offset: 0x106F4, size: 0x8, addend: 0x0, symName: __ZN4ezgl7point2dC1Edd, symObjAddr: 0x0, symBinAddr: 0x100001740, symSize: 0x30 }
  - { offsetInCU: 0x1073A, offset: 0x1073A, size: 0x8, addend: 0x0, symName: __ZN4ezgl9rectangleC1ENS_7point2dEdd, symObjAddr: 0x30, symBinAddr: 0x100001770, symSize: 0x50 }
  - { offsetInCU: 0x1078E, offset: 0x1078E, size: 0x8, addend: 0x0, symName: _main, symObjAddr: 0x80, symBinAddr: 0x1000017C0, symSize: 0x210 }
  - { offsetInCU: 0x1110B, offset: 0x1110B, size: 0x8, addend: 0x0, symName: __ZN4ezgl11application8settingsC1Ev, symObjAddr: 0x290, symBinAddr: 0x1000019D0, symSize: 0x20 }
  - { offsetInCU: 0x11135, offset: 0x11135, size: 0x8, addend: 0x0, symName: __ZNSt3__112basic_stringIcNS_11char_traitsIcEENS_9allocatorIcEEEaSB8ue170006EPKc, symObjAddr: 0x2B0, symBinAddr: 0x1000019F0, symSize: 0x30 }
  - { offsetInCU: 0x11174, offset: 0x11174, size: 0x8, addend: 0x0, symName: __ZN4ezgl11application8settingsC1ERKS1_, symObjAddr: 0x2E0, symBinAddr: 0x100001A20, symSize: 0x30 }
  - { offsetInCU: 0x111A9, offset: 0x111A9, size: 0x8, addend: 0x0, symName: __ZN4ezgl11application8settingsD1Ev, symObjAddr: 0x310, symBinAddr: 0x100001A50, symSize: 0x20 }
  - { offsetInCU: 0x111DA, offset: 0x111DA, size: 0x8, addend: 0x0, symName: __ZNSt3__112basic_stringIcNS_11char_traitsIcEENS_9allocatorIcEEEC1B8ue170006ILi0EEEPKc, symObjAddr: 0x330, symBinAddr: 0x100001A70, symSize: 0x30 }
  - { offsetInCU: 0x11218, offset: 0x11218, size: 0x8, addend: 0x0, symName: __Z16draw_main_canvasPN4ezgl8rendererE, symObjAddr: 0x360, symBinAddr: 0x100001AA0, symSize: 0x60 }
  - { offsetInCU: 0x11240, offset: 0x11240, size: 0x8, addend: 0x0, symName: __Z13initial_setupPN4ezgl11applicationEb, symObjAddr: 0x3C0, symBinAddr: 0x100001B00, symSize: 0x400 }
  - { offsetInCU: 0x11284, offset: 0x11284, size: 0x8, addend: 0x0, symName: __Z18act_on_mouse_pressPN4ezgl11applicationEP15_GdkEventButtondd, symObjAddr: 0x7C0, symBinAddr: 0x100001F00, symSize: 0x200 }
  - { offsetInCU: 0x112DB, offset: 0x112DB, size: 0x8, addend: 0x0, symName: __Z17act_on_mouse_movePN4ezgl11applicationEP15_GdkEventButtondd, symObjAddr: 0x9C0, symBinAddr: 0x100002100, symSize: 0x80 }
  - { offsetInCU: 0x1132A, offset: 0x1132A, size: 0x8, addend: 0x0, symName: __Z16act_on_key_pressPN4ezgl11applicationEP12_GdkEventKeyPc, symObjAddr: 0xA40, symBinAddr: 0x100002180, symSize: 0xA0 }
  - { offsetInCU: 0x1136E, offset: 0x1136E, size: 0x8, addend: 0x0, symName: __Z22draw_rectangle_examplePN4ezgl8rendererE, symObjAddr: 0xAE0, symBinAddr: 0x100002220, symSize: 0x560 }
  - { offsetInCU: 0x1141B, offset: 0x1141B, size: 0x8, addend: 0x0, symName: __Z16draw_arc_examplePN4ezgl8rendererE, symObjAddr: 0x1040, symBinAddr: 0x100002780, symSize: 0x820 }
  - { offsetInCU: 0x11454, offset: 0x11454, size: 0x8, addend: 0x0, symName: __Z20rotated_text_examplePN4ezgl8rendererE, symObjAddr: 0x1860, symBinAddr: 0x100002FA0, symSize: 0x910 }
  - { offsetInCU: 0x1149C, offset: 0x1149C, size: 0x8, addend: 0x0, symName: __Z17draw_poly_examplePN4ezgl8rendererE, symObjAddr: 0x2170, symBinAddr: 0x1000038B0, symSize: 0xAC0 }
  - { offsetInCU: 0x114D7, offset: 0x114D7, size: 0x8, addend: 0x0, symName: __Z17draw_text_examplePN4ezgl8rendererE, symObjAddr: 0x2C30, symBinAddr: 0x100004370, symSize: 0x3E0 }
  - { offsetInCU: 0x115A2, offset: 0x115A2, size: 0x8, addend: 0x0, symName: __Z17draw_line_examplePN4ezgl8rendererE, symObjAddr: 0x3010, symBinAddr: 0x100004750, symSize: 0x6F0 }
  - { offsetInCU: 0x115F6, offset: 0x115F6, size: 0x8, addend: 0x0, symName: __Z26screen_coordinates_examplePN4ezgl8rendererE, symObjAddr: 0x3700, symBinAddr: 0x100004E40, symSize: 0x1E0 }
  - { offsetInCU: 0x11620, offset: 0x11620, size: 0x8, addend: 0x0, symName: __Z16draw_png_examplePN4ezgl8rendererE, symObjAddr: 0x38E0, symBinAddr: 0x100005020, symSize: 0x140 }
  - { offsetInCU: 0x11659, offset: 0x11659, size: 0x8, addend: 0x0, symName: __Z18animate_button_cbkP10_GtkWidgetPN4ezgl11applicationE, symObjAddr: 0x3A20, symBinAddr: 0x100005160, symSize: 0x140 }
  - { offsetInCU: 0x116E7, offset: 0x116E7, size: 0x8, addend: 0x0, symName: __Z15test_button_cbkP10_GtkWidgetPN4ezgl11applicationE, symObjAddr: 0x3B60, symBinAddr: 0x1000052A0, symSize: 0x80 }
  - { offsetInCU: 0x1171C, offset: 0x1171C, size: 0x8, addend: 0x0, symName: __Z13combo_box_cbkP16_GtkComboBoxTextPN4ezgl11applicationE, symObjAddr: 0x3BE0, symBinAddr: 0x100005320, symSize: 0xA0 }
  - { offsetInCU: 0x11765, offset: 0x11765, size: 0x8, addend: 0x0, symName: __ZNSt3__16vectorINS_12basic_stringIcNS_11char_traitsIcEENS_9allocatorIcEEEENS4_IS6_EEEC1B8ue170006ESt16initializer_listIS6_E, symObjAddr: 0x3C80, symBinAddr: 0x1000053C0, symSize: 0x30 }
  - { offsetInCU: 0x117A0, offset: 0x117A0, size: 0x8, addend: 0x0, symName: __ZNSt3__16vectorINS_12basic_stringIcNS_11char_traitsIcEENS_9allocatorIcEEEENS4_IS6_EEED1B8ue170006Ev, symObjAddr: 0x3CB0, symBinAddr: 0x1000053F0, symSize: 0x20 }
  - { offsetInCU: 0x117C9, offset: 0x117C9, size: 0x8, addend: 0x0, symName: __Z20delete_combo_box_cbkP10_GtkWidgetPN4ezgl11applicationE, symObjAddr: 0x3CD0, symBinAddr: 0x100005410, symSize: 0xF0 }
  - { offsetInCU: 0x11802, offset: 0x11802, size: 0x8, addend: 0x0, symName: __Z24create_dialog_button_cbkP10_GtkWidgetPN4ezgl11applicationE, symObjAddr: 0x3DC0, symBinAddr: 0x100005500, symSize: 0x40 }
  - { offsetInCU: 0x11837, offset: 0x11837, size: 0x8, addend: 0x0, symName: __Z22create_mssg_button_cbkP10_GtkWidgetPN4ezgl11applicationE, symObjAddr: 0x3E00, symBinAddr: 0x100005540, symSize: 0x30 }
  - { offsetInCU: 0x1186D, offset: 0x1186D, size: 0x8, addend: 0x0, symName: __ZNK4ezgl9rectangle8center_yEv, symObjAddr: 0x3E30, symBinAddr: 0x100005570, symSize: 0x50 }
  - { offsetInCU: 0x11893, offset: 0x11893, size: 0x8, addend: 0x0, symName: __ZNK4ezgl9rectangle9top_rightEv, symObjAddr: 0x3EC0, symBinAddr: 0x100005600, symSize: 0x50 }
  - { offsetInCU: 0x118B9, offset: 0x118B9, size: 0x8, addend: 0x0, symName: __ZNK4ezgl9rectangle6centerEv, symObjAddr: 0x3F10, symBinAddr: 0x100005650, symSize: 0x50 }
  - { offsetInCU: 0x118DF, offset: 0x118DF, size: 0x8, addend: 0x0, symName: __ZNK4ezgl9rectangle5rightEv, symObjAddr: 0x3F60, symBinAddr: 0x1000056A0, symSize: 0x30 }
  - { offsetInCU: 0x11905, offset: 0x11905, size: 0x8, addend: 0x0, symName: __ZNK4ezgl9rectangle3topEv, symObjAddr: 0x3F90, symBinAddr: 0x1000056D0, symSize: 0x30 }
  - { offsetInCU: 0x1192B, offset: 0x1192B, size: 0x8, addend: 0x0, symName: __ZNK4ezgl9rectangle4leftEv, symObjAddr: 0x3FC0, symBinAddr: 0x100005700, symSize: 0x30 }
  - { offsetInCU: 0x11951, offset: 0x11951, size: 0x8, addend: 0x0, symName: __ZNK4ezgl9rectangle6bottomEv, symObjAddr: 0x3FF0, symBinAddr: 0x100005730, symSize: 0x30 }
  - { offsetInCU: 0x11977, offset: 0x11977, size: 0x8, addend: 0x0, symName: __ZNK4ezgl9rectangle8center_xEv, symObjAddr: 0x4020, symBinAddr: 0x100005760, symSize: 0x50 }
  - { offsetInCU: 0x1199D, offset: 0x1199D, size: 0x8, addend: 0x0, symName: __ZNK4ezgl9rectangle5widthEv, symObjAddr: 0x4070, symBinAddr: 0x1000057B0, symSize: 0x40 }
  - { offsetInCU: 0x119C3, offset: 0x119C3, size: 0x8, addend: 0x0, symName: __ZNK4ezgl9rectangle6heightEv, symObjAddr: 0x40B0, symBinAddr: 0x1000057F0, symSize: 0x40 }
  - { offsetInCU: 0x119E9, offset: 0x119E9, size: 0x8, addend: 0x0, symName: __ZNSt3__16vectorIN4ezgl7point2dENS_9allocatorIS2_EEEC1B8ue170006ESt16initializer_listIS2_E, symObjAddr: 0x40F0, symBinAddr: 0x100005830, symSize: 0x30 }
  - { offsetInCU: 0x11A24, offset: 0x11A24, size: 0x8, addend: 0x0, symName: __ZNSt3__16vectorIN4ezgl7point2dENS_9allocatorIS2_EEED1B8ue170006Ev, symObjAddr: 0x4120, symBinAddr: 0x100005860, symSize: 0x20 }
  - { offsetInCU: 0x11A4E, offset: 0x11A4E, size: 0x8, addend: 0x0, symName: __ZN4ezgl9rectangleC1ENS_7point2dES1_, symObjAddr: 0x4140, symBinAddr: 0x100005880, symSize: 0x50 }
  - { offsetInCU: 0x11A93, offset: 0x11A93, size: 0x8, addend: 0x0, symName: __Z10dialog_cbkP10_GtkDialogiPN4ezgl11applicationE, symObjAddr: 0x42F0, symBinAddr: 0x100005A30, symSize: 0x220 }
  - { offsetInCU: 0x11ADC, offset: 0x11ADC, size: 0x8, addend: 0x0, symName: __ZNSt3__113basic_ostreamIcNS_11char_traitsIcEEElsB8ue170006EPFRS3_S4_E, symObjAddr: 0x4550, symBinAddr: 0x100005C90, symSize: 0x20 }
  - { offsetInCU: 0x11B10, offset: 0x11B10, size: 0x8, addend: 0x0, symName: __ZN4ezgl7point2dC2Edd, symObjAddr: 0x45C0, symBinAddr: 0x100005D00, symSize: 0x30 }
  - { offsetInCU: 0x11B56, offset: 0x11B56, size: 0x8, addend: 0x0, symName: __ZN4ezgl9rectangleC2ENS_7point2dEdd, symObjAddr: 0x45F0, symBinAddr: 0x100005D30, symSize: 0x60 }
  - { offsetInCU: 0x11BAA, offset: 0x11BAA, size: 0x8, addend: 0x0, symName: __ZN4ezgl11application8settingsC2Ev, symObjAddr: 0x4650, symBinAddr: 0x100005D90, symSize: 0x1A0 }
  - { offsetInCU: 0x11BD4, offset: 0x11BD4, size: 0x8, addend: 0x0, symName: __ZNSt3__112basic_stringIcNS_11char_traitsIcEENS_9allocatorIcEEEpLB8ue170006ERKS5_, symObjAddr: 0x4840, symBinAddr: 0x100005F80, symSize: 0x30 }
  - { offsetInCU: 0x11C09, offset: 0x11C09, size: 0x8, addend: 0x0, symName: __ZNSt3__112basic_stringIcNS_11char_traitsIcEENS_9allocatorIcEEEC1B8ue170006EOS5_, symObjAddr: 0x4870, symBinAddr: 0x100005FB0, symSize: 0x30 }
  - { offsetInCU: 0x11C42, offset: 0x11C42, size: 0x8, addend: 0x0, symName: __ZNSt3__112basic_stringIcNS_11char_traitsIcEENS_9allocatorIcEEEC2B8ue170006EOS5_, symObjAddr: 0x48A0, symBinAddr: 0x100005FE0, symSize: 0x50 }
  - { offsetInCU: 0x11C7B, offset: 0x11C7B, size: 0x8, addend: 0x0, symName: __ZNSt3__112basic_stringIcNS_11char_traitsIcEENS_9allocatorIcEEE14__default_initB8ue170006Ev, symObjAddr: 0x48F0, symBinAddr: 0x100006030, symSize: 0x50 }
  - { offsetInCU: 0x11CA1, offset: 0x11CA1, size: 0x8, addend: 0x0, symName: __ZNSt3__117__compressed_pairINS_12basic_stringIcNS_11char_traitsIcEENS_9allocatorIcEEE5__repES5_E5firstB8ue170006Ev, symObjAddr: 0x4950, symBinAddr: 0x100006090, symSize: 0x20 }
  - { offsetInCU: 0x11CC7, offset: 0x11CC7, size: 0x8, addend: 0x0, symName: __ZNSt3__122__compressed_pair_elemINS_12basic_stringIcNS_11char_traitsIcEENS_9allocatorIcEEE5__repELi0ELb0EE5__getB8ue170006Ev, symObjAddr: 0x4970, symBinAddr: 0x1000060B0, symSize: 0x10 }
  - { offsetInCU: 0x11CED, offset: 0x11CED, size: 0x8, addend: 0x0, symName: __ZNSt3__112basic_stringIcNS_11char_traitsIcEENS_9allocatorIcEEE6appendB8ue170006ERKS5_, symObjAddr: 0x4980, symBinAddr: 0x1000060C0, symSize: 0x50 }
  - { offsetInCU: 0x11D22, offset: 0x11D22, size: 0x8, addend: 0x0, symName: __ZNKSt3__112basic_stringIcNS_11char_traitsIcEENS_9allocatorIcEEE4dataB8ue170006Ev, symObjAddr: 0x49D0, symBinAddr: 0x100006110, symSize: 0x30 }
  - { offsetInCU: 0x11D48, offset: 0x11D48, size: 0x8, addend: 0x0, symName: __ZNKSt3__112basic_stringIcNS_11char_traitsIcEENS_9allocatorIcEEE4sizeB8ue170006Ev, symObjAddr: 0x4A00, symBinAddr: 0x100006140, symSize: 0x50 }
  - { offsetInCU: 0x11D6E, offset: 0x11D6E, size: 0x8, addend: 0x0, symName: __ZNKSt3__112basic_stringIcNS_11char_traitsIcEENS_9allocatorIcEEE13__get_pointerB8ue170006Ev, symObjAddr: 0x4A60, symBinAddr: 0x1000061A0, symSize: 0x50 }
  - { offsetInCU: 0x11D94, offset: 0x11D94, size: 0x8, addend: 0x0, symName: __ZNKSt3__112basic_stringIcNS_11char_traitsIcEENS_9allocatorIcEEE9__is_longB8ue170006Ev, symObjAddr: 0x4AB0, symBinAddr: 0x1000061F0, symSize: 0x30 }
  - { offsetInCU: 0x11DBA, offset: 0x11DBA, size: 0x8, addend: 0x0, symName: __ZNKSt3__112basic_stringIcNS_11char_traitsIcEENS_9allocatorIcEEE18__get_long_pointerB8ue170006Ev, symObjAddr: 0x4AE0, symBinAddr: 0x100006220, symSize: 0x20 }
  - { offsetInCU: 0x11DE0, offset: 0x11DE0, size: 0x8, addend: 0x0, symName: __ZNKSt3__112basic_stringIcNS_11char_traitsIcEENS_9allocatorIcEEE19__get_short_pointerB8ue170006Ev, symObjAddr: 0x4B00, symBinAddr: 0x100006240, symSize: 0x30 }
  - { offsetInCU: 0x11E06, offset: 0x11E06, size: 0x8, addend: 0x0, symName: __ZNKSt3__117__compressed_pairINS_12basic_stringIcNS_11char_traitsIcEENS_9allocatorIcEEE5__repES5_E5firstB8ue170006Ev, symObjAddr: 0x4B30, symBinAddr: 0x100006270, symSize: 0x20 }
  - { offsetInCU: 0x11E2C, offset: 0x11E2C, size: 0x8, addend: 0x0, symName: __ZNKSt3__122__compressed_pair_elemINS_12basic_stringIcNS_11char_traitsIcEENS_9allocatorIcEEE5__repELi0ELb0EE5__getB8ue170006Ev, symObjAddr: 0x4B50, symBinAddr: 0x100006290, symSize: 0x10 }
  - { offsetInCU: 0x11E52, offset: 0x11E52, size: 0x8, addend: 0x0, symName: __ZNSt3__114pointer_traitsIPKcE10pointer_toB8ue170006ERS1_, symObjAddr: 0x4B60, symBinAddr: 0x1000062A0, symSize: 0x10 }
  - { offsetInCU: 0x11E75, offset: 0x11E75, size: 0x8, addend: 0x0, symName: __ZNKSt3__112basic_stringIcNS_11char_traitsIcEENS_9allocatorIcEEE15__get_long_sizeB8ue170006Ev, symObjAddr: 0x4B70, symBinAddr: 0x1000062B0, symSize: 0x20 }
  - { offsetInCU: 0x11E9B, offset: 0x11E9B, size: 0x8, addend: 0x0, symName: __ZNKSt3__112basic_stringIcNS_11char_traitsIcEENS_9allocatorIcEEE16__get_short_sizeB8ue170006Ev, symObjAddr: 0x4B90, symBinAddr: 0x1000062D0, symSize: 0x30 }
  - { offsetInCU: 0x11EC1, offset: 0x11EC1, size: 0x8, addend: 0x0, symName: __ZN4ezgl11application8settingsC2ERKS1_, symObjAddr: 0x4BC0, symBinAddr: 0x100006300, symSize: 0xF0 }
  - { offsetInCU: 0x11EF6, offset: 0x11EF6, size: 0x8, addend: 0x0, symName: __ZN4ezgl11application8settingsD2Ev, symObjAddr: 0x4CB0, symBinAddr: 0x1000063F0, symSize: 0x50 }
  - { offsetInCU: 0x11F36, offset: 0x11F36, size: 0x8, addend: 0x0, symName: __ZNKSt3__16__lessIvvEclB8ue170006IddEEbRKT_RKT0_, symObjAddr: 0x4D80, symBinAddr: 0x1000064C0, symSize: 0x30 }
  - { offsetInCU: 0x11F8A, offset: 0x11F8A, size: 0x8, addend: 0x0, symName: __ZN4ezgl9rectangleC2ENS_7point2dES1_, symObjAddr: 0x4E30, symBinAddr: 0x100006570, symSize: 0x50 }
  - { offsetInCU: 0x11FD0, offset: 0x11FD0, size: 0x8, addend: 0x0, symName: __ZNSt3__112basic_stringIcNS_11char_traitsIcEENS_9allocatorIcEEEC2B8ue170006ILi0EEEPKc, symObjAddr: 0x4E80, symBinAddr: 0x1000065C0, symSize: 0x50 }
  - { offsetInCU: 0x12015, offset: 0x12015, size: 0x8, addend: 0x0, symName: __ZNSt3__117__compressed_pairINS_12basic_stringIcNS_11char_traitsIcEENS_9allocatorIcEEE5__repES5_EC1B8ue170006INS_18__default_init_tagESA_EEOT_OT0_, symObjAddr: 0x4ED0, symBinAddr: 0x100006610, symSize: 0x30 }
  - { offsetInCU: 0x1206D, offset: 0x1206D, size: 0x8, addend: 0x0, symName: __ZNSt3__111char_traitsIcE6lengthB8ue170006EPKc, symObjAddr: 0x4F00, symBinAddr: 0x100006640, symSize: 0x30 }
  - { offsetInCU: 0x12090, offset: 0x12090, size: 0x8, addend: 0x0, symName: __ZNSt3__117__compressed_pairINS_12basic_stringIcNS_11char_traitsIcEENS_9allocatorIcEEE5__repES5_EC2B8ue170006INS_18__default_init_tagESA_EEOT_OT0_, symObjAddr: 0x4F30, symBinAddr: 0x100006670, symSize: 0x30 }
  - { offsetInCU: 0x120E8, offset: 0x120E8, size: 0x8, addend: 0x0, symName: __ZNSt3__122__compressed_pair_elemINS_12basic_stringIcNS_11char_traitsIcEENS_9allocatorIcEEE5__repELi0ELb0EEC2B8ue170006ENS_18__default_init_tagE, symObjAddr: 0x4F60, symBinAddr: 0x1000066A0, symSize: 0x10 }
  - { offsetInCU: 0x1211D, offset: 0x1211D, size: 0x8, addend: 0x0, symName: __ZNSt3__122__compressed_pair_elemINS_9allocatorIcEELi1ELb1EEC2B8ue170006ENS_18__default_init_tagE, symObjAddr: 0x4F70, symBinAddr: 0x1000066B0, symSize: 0x20 }
  - { offsetInCU: 0x12152, offset: 0x12152, size: 0x8, addend: 0x0, symName: __ZNSt3__19allocatorIcEC2B8ue170006Ev, symObjAddr: 0x4F90, symBinAddr: 0x1000066D0, symSize: 0x20 }
  - { offsetInCU: 0x1217C, offset: 0x1217C, size: 0x8, addend: 0x0, symName: __ZNSt3__116__non_trivial_ifILb1ENS_9allocatorIcEEEC2B8ue170006Ev, symObjAddr: 0x4FB0, symBinAddr: 0x1000066F0, symSize: 0x10 }
  - { offsetInCU: 0x121A6, offset: 0x121A6, size: 0x8, addend: 0x0, symName: __ZNSt3__16vectorINS_12basic_stringIcNS_11char_traitsIcEENS_9allocatorIcEEEENS4_IS6_EEEC2B8ue170006ESt16initializer_listIS6_E, symObjAddr: 0x4FE0, symBinAddr: 0x100006720, symSize: 0x110 }
  - { offsetInCU: 0x121FC, offset: 0x121FC, size: 0x8, addend: 0x0, symName: __ZNSt3__117__compressed_pairIPNS_12basic_stringIcNS_11char_traitsIcEENS_9allocatorIcEEEENS4_IS6_EEEC1B8ue170006IDnNS_18__default_init_tagEEEOT_OT0_, symObjAddr: 0x50F0, symBinAddr: 0x100006830, symSize: 0x30 }
  - { offsetInCU: 0x12254, offset: 0x12254, size: 0x8, addend: 0x0, symName: __ZNSt3__16vectorINS_12basic_stringIcNS_11char_traitsIcEENS_9allocatorIcEEEENS4_IS6_EEE16__destroy_vectorC1B8ue170006ERS8_, symObjAddr: 0x5160, symBinAddr: 0x1000068A0, symSize: 0x30 }
  - { offsetInCU: 0x1228D, offset: 0x1228D, size: 0x8, addend: 0x0, symName: __ZNKSt16initializer_listINSt3__112basic_stringIcNS0_11char_traitsIcEENS0_9allocatorIcEEEEE4sizeB8ue170006Ev, symObjAddr: 0x5190, symBinAddr: 0x1000068D0, symSize: 0x20 }
  - { offsetInCU: 0x122B3, offset: 0x122B3, size: 0x8, addend: 0x0, symName: __ZNSt3__16vectorINS_12basic_stringIcNS_11char_traitsIcEENS_9allocatorIcEEEENS4_IS6_EEE11__vallocateB8ue170006Em, symObjAddr: 0x51B0, symBinAddr: 0x1000068F0, symSize: 0xA0 }
  - { offsetInCU: 0x122F7, offset: 0x122F7, size: 0x8, addend: 0x0, symName: __ZNSt3__16vectorINS_12basic_stringIcNS_11char_traitsIcEENS_9allocatorIcEEEENS4_IS6_EEE18__construct_at_endIPKS6_SB_EEvT_T0_m, symObjAddr: 0x5250, symBinAddr: 0x100006990, symSize: 0x90 }
  - { offsetInCU: 0x1236D, offset: 0x1236D, size: 0x8, addend: 0x0, symName: __ZNKSt16initializer_listINSt3__112basic_stringIcNS0_11char_traitsIcEENS0_9allocatorIcEEEEE5beginB8ue170006Ev, symObjAddr: 0x52E0, symBinAddr: 0x100006A20, symSize: 0x20 }
  - { offsetInCU: 0x12393, offset: 0x12393, size: 0x8, addend: 0x0, symName: __ZNKSt16initializer_listINSt3__112basic_stringIcNS0_11char_traitsIcEENS0_9allocatorIcEEEEE3endB8ue170006Ev, symObjAddr: 0x5300, symBinAddr: 0x100006A40, symSize: 0x20 }
  - { offsetInCU: 0x123B9, offset: 0x123B9, size: 0x8, addend: 0x0, symName: __ZNSt3__128__exception_guard_exceptionsINS_6vectorINS_12basic_stringIcNS_11char_traitsIcEENS_9allocatorIcEEEENS5_IS7_EEE16__destroy_vectorEE10__completeB8ue170006Ev, symObjAddr: 0x5320, symBinAddr: 0x100006A60, symSize: 0x20 }
  - { offsetInCU: 0x123DF, offset: 0x123DF, size: 0x8, addend: 0x0, symName: __ZNSt3__128__exception_guard_exceptionsINS_6vectorINS_12basic_stringIcNS_11char_traitsIcEENS_9allocatorIcEEEENS5_IS7_EEE16__destroy_vectorEED1B8ue170006Ev, symObjAddr: 0x5340, symBinAddr: 0x100006A80, symSize: 0x20 }
  - { offsetInCU: 0x12409, offset: 0x12409, size: 0x8, addend: 0x0, symName: __ZNSt3__117__compressed_pairIPNS_12basic_stringIcNS_11char_traitsIcEENS_9allocatorIcEEEENS4_IS6_EEEC2B8ue170006IDnNS_18__default_init_tagEEEOT_OT0_, symObjAddr: 0x5360, symBinAddr: 0x100006AA0, symSize: 0x40 }
  - { offsetInCU: 0x12461, offset: 0x12461, size: 0x8, addend: 0x0, symName: __ZNSt3__122__compressed_pair_elemIPNS_12basic_stringIcNS_11char_traitsIcEENS_9allocatorIcEEEELi0ELb0EEC2B8ue170006IDnvEEOT_, symObjAddr: 0x53A0, symBinAddr: 0x100006AE0, symSize: 0x20 }
  - { offsetInCU: 0x124A3, offset: 0x124A3, size: 0x8, addend: 0x0, symName: __ZNSt3__122__compressed_pair_elemINS_9allocatorINS_12basic_stringIcNS_11char_traitsIcEENS1_IcEEEEEELi1ELb1EEC2B8ue170006ENS_18__default_init_tagE, symObjAddr: 0x53C0, symBinAddr: 0x100006B00, symSize: 0x20 }
  - { offsetInCU: 0x124D8, offset: 0x124D8, size: 0x8, addend: 0x0, symName: __ZNSt3__19allocatorINS_12basic_stringIcNS_11char_traitsIcEENS0_IcEEEEEC2B8ue170006Ev, symObjAddr: 0x53E0, symBinAddr: 0x100006B20, symSize: 0x20 }
  - { offsetInCU: 0x12502, offset: 0x12502, size: 0x8, addend: 0x0, symName: __ZNSt3__116__non_trivial_ifILb1ENS_9allocatorINS_12basic_stringIcNS_11char_traitsIcEENS1_IcEEEEEEEC2B8ue170006Ev, symObjAddr: 0x5400, symBinAddr: 0x100006B40, symSize: 0x10 }
  - { offsetInCU: 0x1252C, offset: 0x1252C, size: 0x8, addend: 0x0, symName: __ZNSt3__128__exception_guard_exceptionsINS_6vectorINS_12basic_stringIcNS_11char_traitsIcEENS_9allocatorIcEEEENS5_IS7_EEE16__destroy_vectorEEC1B8ue170006ESA_, symObjAddr: 0x5410, symBinAddr: 0x100006B50, symSize: 0x30 }
  - { offsetInCU: 0x12564, offset: 0x12564, size: 0x8, addend: 0x0, symName: __ZNSt3__128__exception_guard_exceptionsINS_6vectorINS_12basic_stringIcNS_11char_traitsIcEENS_9allocatorIcEEEENS5_IS7_EEE16__destroy_vectorEEC2B8ue170006ESA_, symObjAddr: 0x5440, symBinAddr: 0x100006B80, symSize: 0x20 }
  - { offsetInCU: 0x1259C, offset: 0x1259C, size: 0x8, addend: 0x0, symName: __ZNSt3__16vectorINS_12basic_stringIcNS_11char_traitsIcEENS_9allocatorIcEEEENS4_IS6_EEE16__destroy_vectorC2B8ue170006ERS8_, symObjAddr: 0x5460, symBinAddr: 0x100006BA0, symSize: 0x20 }
  - { offsetInCU: 0x125D5, offset: 0x125D5, size: 0x8, addend: 0x0, symName: __ZNKSt3__16vectorINS_12basic_stringIcNS_11char_traitsIcEENS_9allocatorIcEEEENS4_IS6_EEE8max_sizeEv, symObjAddr: 0x5480, symBinAddr: 0x100006BC0, symSize: 0x60 }
  - { offsetInCU: 0x125FD, offset: 0x125FD, size: 0x8, addend: 0x0, symName: __ZNKSt3__16vectorINS_12basic_stringIcNS_11char_traitsIcEENS_9allocatorIcEEEENS4_IS6_EEE20__throw_length_errorB8ue170006Ev, symObjAddr: 0x54E0, symBinAddr: 0x100006C20, symSize: 0x20 }
  - { offsetInCU: 0x12623, offset: 0x12623, size: 0x8, addend: 0x0, symName: __ZNSt3__16vectorINS_12basic_stringIcNS_11char_traitsIcEENS_9allocatorIcEEEENS4_IS6_EEE7__allocB8ue170006Ev, symObjAddr: 0x5540, symBinAddr: 0x100006C80, symSize: 0x20 }
  - { offsetInCU: 0x12649, offset: 0x12649, size: 0x8, addend: 0x0, symName: __ZNSt3__16vectorINS_12basic_stringIcNS_11char_traitsIcEENS_9allocatorIcEEEENS4_IS6_EEE9__end_capB8ue170006Ev, symObjAddr: 0x5560, symBinAddr: 0x100006CA0, symSize: 0x20 }
  - { offsetInCU: 0x1266F, offset: 0x1266F, size: 0x8, addend: 0x0, symName: __ZNKSt3__16vectorINS_12basic_stringIcNS_11char_traitsIcEENS_9allocatorIcEEEENS4_IS6_EEE14__annotate_newB8ue170006Em, symObjAddr: 0x5580, symBinAddr: 0x100006CC0, symSize: 0xA0 }
  - { offsetInCU: 0x126AE, offset: 0x126AE, size: 0x8, addend: 0x0, symName: __ZNSt3__116allocator_traitsINS_9allocatorINS_12basic_stringIcNS_11char_traitsIcEENS1_IcEEEEEEE8max_sizeB8ue170006IS7_vEEmRKS7_, symObjAddr: 0x5650, symBinAddr: 0x100006D90, symSize: 0x20 }
  - { offsetInCU: 0x126DC, offset: 0x126DC, size: 0x8, addend: 0x0, symName: __ZNKSt3__16vectorINS_12basic_stringIcNS_11char_traitsIcEENS_9allocatorIcEEEENS4_IS6_EEE7__allocB8ue170006Ev, symObjAddr: 0x5670, symBinAddr: 0x100006DB0, symSize: 0x20 }
  - { offsetInCU: 0x12702, offset: 0x12702, size: 0x8, addend: 0x0, symName: __ZNSt3__114numeric_limitsIlE3maxB8ue170006Ev, symObjAddr: 0x5690, symBinAddr: 0x100006DD0, symSize: 0x10 }
  - { offsetInCU: 0x12716, offset: 0x12716, size: 0x8, addend: 0x0, symName: __ZNKSt3__16__lessIvvEclB8ue170006ImmEEbRKT_RKT0_, symObjAddr: 0x56F0, symBinAddr: 0x100006E30, symSize: 0x30 }
  - { offsetInCU: 0x1276A, offset: 0x1276A, size: 0x8, addend: 0x0, symName: __ZNKSt3__19allocatorINS_12basic_stringIcNS_11char_traitsIcEENS0_IcEEEEE8max_sizeB8ue170006Ev, symObjAddr: 0x5720, symBinAddr: 0x100006E60, symSize: 0x20 }
  - { offsetInCU: 0x12790, offset: 0x12790, size: 0x8, addend: 0x0, symName: __ZNKSt3__117__compressed_pairIPNS_12basic_stringIcNS_11char_traitsIcEENS_9allocatorIcEEEENS4_IS6_EEE6secondB8ue170006Ev, symObjAddr: 0x5740, symBinAddr: 0x100006E80, symSize: 0x20 }
  - { offsetInCU: 0x127B6, offset: 0x127B6, size: 0x8, addend: 0x0, symName: __ZNKSt3__122__compressed_pair_elemINS_9allocatorINS_12basic_stringIcNS_11char_traitsIcEENS1_IcEEEEEELi1ELb1EE5__getB8ue170006Ev, symObjAddr: 0x5760, symBinAddr: 0x100006EA0, symSize: 0x10 }
  - { offsetInCU: 0x127DC, offset: 0x127DC, size: 0x8, addend: 0x0, symName: __ZNSt3__123__libcpp_numeric_limitsIlLb1EE3maxB8ue170006Ev, symObjAddr: 0x5770, symBinAddr: 0x100006EB0, symSize: 0x10 }
  - { offsetInCU: 0x127F0, offset: 0x127F0, size: 0x8, addend: 0x0, symName: __ZNSt12length_errorC1B8ue170006EPKc, symObjAddr: 0x57F0, symBinAddr: 0x100006F30, symSize: 0x30 }
  - { offsetInCU: 0x12828, offset: 0x12828, size: 0x8, addend: 0x0, symName: __ZNSt12length_errorC2B8ue170006EPKc, symObjAddr: 0x5820, symBinAddr: 0x100006F60, symSize: 0x40 }
  - { offsetInCU: 0x12860, offset: 0x12860, size: 0x8, addend: 0x0, symName: __ZNSt3__19allocatorINS_12basic_stringIcNS_11char_traitsIcEENS0_IcEEEEE8allocateB8ue170006Em, symObjAddr: 0x5860, symBinAddr: 0x100006FA0, symSize: 0x50 }
  - { offsetInCU: 0x12894, offset: 0x12894, size: 0x8, addend: 0x0, symName: __ZNSt3__117__compressed_pairIPNS_12basic_stringIcNS_11char_traitsIcEENS_9allocatorIcEEEENS4_IS6_EEE6secondB8ue170006Ev, symObjAddr: 0x5930, symBinAddr: 0x100007070, symSize: 0x20 }
  - { offsetInCU: 0x128BA, offset: 0x128BA, size: 0x8, addend: 0x0, symName: __ZNSt3__122__compressed_pair_elemINS_9allocatorINS_12basic_stringIcNS_11char_traitsIcEENS1_IcEEEEEELi1ELb1EE5__getB8ue170006Ev, symObjAddr: 0x5950, symBinAddr: 0x100007090, symSize: 0x10 }
  - { offsetInCU: 0x128E0, offset: 0x128E0, size: 0x8, addend: 0x0, symName: __ZNSt3__117__compressed_pairIPNS_12basic_stringIcNS_11char_traitsIcEENS_9allocatorIcEEEENS4_IS6_EEE5firstB8ue170006Ev, symObjAddr: 0x5960, symBinAddr: 0x1000070A0, symSize: 0x20 }
  - { offsetInCU: 0x12906, offset: 0x12906, size: 0x8, addend: 0x0, symName: __ZNSt3__122__compressed_pair_elemIPNS_12basic_stringIcNS_11char_traitsIcEENS_9allocatorIcEEEELi0ELb0EE5__getB8ue170006Ev, symObjAddr: 0x5980, symBinAddr: 0x1000070C0, symSize: 0x10 }
  - { offsetInCU: 0x1292C, offset: 0x1292C, size: 0x8, addend: 0x0, symName: __ZNKSt3__16vectorINS_12basic_stringIcNS_11char_traitsIcEENS_9allocatorIcEEEENS4_IS6_EEE31__annotate_contiguous_containerB8ue170006EPKvSA_SA_SA_, symObjAddr: 0x5990, symBinAddr: 0x1000070D0, symSize: 0x20 }
  - { offsetInCU: 0x1297E, offset: 0x1297E, size: 0x8, addend: 0x0, symName: __ZNKSt3__16vectorINS_12basic_stringIcNS_11char_traitsIcEENS_9allocatorIcEEEENS4_IS6_EEE4dataB8ue170006Ev, symObjAddr: 0x59B0, symBinAddr: 0x1000070F0, symSize: 0x20 }
  - { offsetInCU: 0x129A4, offset: 0x129A4, size: 0x8, addend: 0x0, symName: __ZNKSt3__16vectorINS_12basic_stringIcNS_11char_traitsIcEENS_9allocatorIcEEEENS4_IS6_EEE8capacityB8ue170006Ev, symObjAddr: 0x59D0, symBinAddr: 0x100007110, symSize: 0x40 }
  - { offsetInCU: 0x129CA, offset: 0x129CA, size: 0x8, addend: 0x0, symName: __ZNKSt3__16vectorINS_12basic_stringIcNS_11char_traitsIcEENS_9allocatorIcEEEENS4_IS6_EEE9__end_capB8ue170006Ev, symObjAddr: 0x5A20, symBinAddr: 0x100007160, symSize: 0x20 }
  - { offsetInCU: 0x129F0, offset: 0x129F0, size: 0x8, addend: 0x0, symName: __ZNKSt3__117__compressed_pairIPNS_12basic_stringIcNS_11char_traitsIcEENS_9allocatorIcEEEENS4_IS6_EEE5firstB8ue170006Ev, symObjAddr: 0x5A40, symBinAddr: 0x100007180, symSize: 0x20 }
  - { offsetInCU: 0x12A16, offset: 0x12A16, size: 0x8, addend: 0x0, symName: __ZNKSt3__122__compressed_pair_elemIPNS_12basic_stringIcNS_11char_traitsIcEENS_9allocatorIcEEEELi0ELb0EE5__getB8ue170006Ev, symObjAddr: 0x5A60, symBinAddr: 0x1000071A0, symSize: 0x10 }
  - { offsetInCU: 0x12A55, offset: 0x12A55, size: 0x8, addend: 0x0, symName: __ZNSt3__16vectorINS_12basic_stringIcNS_11char_traitsIcEENS_9allocatorIcEEEENS4_IS6_EEE21_ConstructTransactionC1B8ue170006ERS8_m, symObjAddr: 0x5A70, symBinAddr: 0x1000071B0, symSize: 0x30 }
  - { offsetInCU: 0x12A9D, offset: 0x12A9D, size: 0x8, addend: 0x0, symName: __ZNSt3__16vectorINS_12basic_stringIcNS_11char_traitsIcEENS_9allocatorIcEEEENS4_IS6_EEE21_ConstructTransactionD1B8ue170006Ev, symObjAddr: 0x5B20, symBinAddr: 0x100007260, symSize: 0x20 }
  - { offsetInCU: 0x12AC7, offset: 0x12AC7, size: 0x8, addend: 0x0, symName: __ZNSt3__16vectorINS_12basic_stringIcNS_11char_traitsIcEENS_9allocatorIcEEEENS4_IS6_EEE21_ConstructTransactionC2B8ue170006ERS8_m, symObjAddr: 0x5B40, symBinAddr: 0x100007280, symSize: 0x40 }
  - { offsetInCU: 0x12B2F, offset: 0x12B2F, size: 0x8, addend: 0x0, symName: __ZNSt3__14pairIPKNS_12basic_stringIcNS_11char_traitsIcEENS_9allocatorIcEEEES8_EC1B8ue170006IS8_S8_LPv0EEEOT_OT0_, symObjAddr: 0x5D80, symBinAddr: 0x1000074C0, symSize: 0x30 }
  - { offsetInCU: 0x12B8D, offset: 0x12B8D, size: 0x8, addend: 0x0, symName: __ZNSt3__14pairIPKNS_12basic_stringIcNS_11char_traitsIcEENS_9allocatorIcEEEES8_EC2B8ue170006IS8_S8_LPv0EEEOT_OT0_, symObjAddr: 0x5DB0, symBinAddr: 0x1000074F0, symSize: 0x30 }
  - { offsetInCU: 0x12BEB, offset: 0x12BEB, size: 0x8, addend: 0x0, symName: __ZNSt3__118__unwrap_iter_implIPKNS_12basic_stringIcNS_11char_traitsIcEENS_9allocatorIcEEEELb1EE8__unwrapB8ue170006ES8_, symObjAddr: 0x5DE0, symBinAddr: 0x100007520, symSize: 0x20 }
  - { offsetInCU: 0x12C0E, offset: 0x12C0E, size: 0x8, addend: 0x0, symName: __ZNSt3__129_AllocatorDestroyRangeReverseINS_9allocatorINS_12basic_stringIcNS_11char_traitsIcEENS1_IcEEEEEEPS6_EC1B8ue170006ERS7_RS8_SB_, symObjAddr: 0x5E70, symBinAddr: 0x1000075B0, symSize: 0x40 }
  - { offsetInCU: 0x12C65, offset: 0x12C65, size: 0x8, addend: 0x0, symName: __ZNSt3__116allocator_traitsINS_9allocatorINS_12basic_stringIcNS_11char_traitsIcEENS1_IcEEEEEEE9constructB8ue170006IS6_JRKS6_EvEEvRS7_PT_DpOT0_, symObjAddr: 0x5EB0, symBinAddr: 0x1000075F0, symSize: 0x30 }
  - { offsetInCU: 0x12CBC, offset: 0x12CBC, size: 0x8, addend: 0x0, symName: __ZNSt3__128__exception_guard_exceptionsINS_29_AllocatorDestroyRangeReverseINS_9allocatorINS_12basic_stringIcNS_11char_traitsIcEENS2_IcEEEEEEPS7_EEE10__completeB8ue170006Ev, symObjAddr: 0x5EE0, symBinAddr: 0x100007620, symSize: 0x20 }
  - { offsetInCU: 0x12CE2, offset: 0x12CE2, size: 0x8, addend: 0x0, symName: __ZNSt3__128__exception_guard_exceptionsINS_29_AllocatorDestroyRangeReverseINS_9allocatorINS_12basic_stringIcNS_11char_traitsIcEENS2_IcEEEEEEPS7_EEED1B8ue170006Ev, symObjAddr: 0x5F00, symBinAddr: 0x100007640, symSize: 0x20 }
  - { offsetInCU: 0x12D0C, offset: 0x12D0C, size: 0x8, addend: 0x0, symName: __ZNSt3__128__exception_guard_exceptionsINS_29_AllocatorDestroyRangeReverseINS_9allocatorINS_12basic_stringIcNS_11char_traitsIcEENS2_IcEEEEEEPS7_EEEC1B8ue170006ESA_, symObjAddr: 0x5F20, symBinAddr: 0x100007660, symSize: 0x40 }
  - { offsetInCU: 0x12D44, offset: 0x12D44, size: 0x8, addend: 0x0, symName: __ZNSt3__128__exception_guard_exceptionsINS_29_AllocatorDestroyRangeReverseINS_9allocatorINS_12basic_stringIcNS_11char_traitsIcEENS2_IcEEEEEEPS7_EEEC2B8ue170006ESA_, symObjAddr: 0x5F60, symBinAddr: 0x1000076A0, symSize: 0x30 }
  - { offsetInCU: 0x12D7C, offset: 0x12D7C, size: 0x8, addend: 0x0, symName: __ZNSt3__129_AllocatorDestroyRangeReverseINS_9allocatorINS_12basic_stringIcNS_11char_traitsIcEENS1_IcEEEEEEPS6_EC2B8ue170006ERS7_RS8_SB_, symObjAddr: 0x5F90, symBinAddr: 0x1000076D0, symSize: 0x40 }
  - { offsetInCU: 0x12DD3, offset: 0x12DD3, size: 0x8, addend: 0x0, symName: __ZNSt3__19allocatorINS_12basic_stringIcNS_11char_traitsIcEENS0_IcEEEEE9constructB8ue170006IS5_JRKS5_EEEvPT_DpOT0_, symObjAddr: 0x5FD0, symBinAddr: 0x100007710, symSize: 0x30 }
  - { offsetInCU: 0x12E29, offset: 0x12E29, size: 0x8, addend: 0x0, symName: __ZNSt3__128__exception_guard_exceptionsINS_29_AllocatorDestroyRangeReverseINS_9allocatorINS_12basic_stringIcNS_11char_traitsIcEENS2_IcEEEEEEPS7_EEED2B8ue170006Ev, symObjAddr: 0x6000, symBinAddr: 0x100007740, symSize: 0x40 }
  - { offsetInCU: 0x12E53, offset: 0x12E53, size: 0x8, addend: 0x0, symName: __ZNKSt3__129_AllocatorDestroyRangeReverseINS_9allocatorINS_12basic_stringIcNS_11char_traitsIcEENS1_IcEEEEEEPS6_EclB8ue170006Ev, symObjAddr: 0x6040, symBinAddr: 0x100007780, symSize: 0x60 }
  - { offsetInCU: 0x12E79, offset: 0x12E79, size: 0x8, addend: 0x0, symName: __ZNSt3__116reverse_iteratorIPNS_12basic_stringIcNS_11char_traitsIcEENS_9allocatorIcEEEEEC1B8ue170006ES7_, symObjAddr: 0x6110, symBinAddr: 0x100007850, symSize: 0x30 }
  - { offsetInCU: 0x12EB1, offset: 0x12EB1, size: 0x8, addend: 0x0, symName: __ZNSt3__116allocator_traitsINS_9allocatorINS_12basic_stringIcNS_11char_traitsIcEENS1_IcEEEEEEE7destroyB8ue170006IS6_vEEvRS7_PT_, symObjAddr: 0x6180, symBinAddr: 0x1000078C0, symSize: 0x30 }
  - { offsetInCU: 0x12EEE, offset: 0x12EEE, size: 0x8, addend: 0x0, symName: __ZNSt3__116reverse_iteratorIPNS_12basic_stringIcNS_11char_traitsIcEENS_9allocatorIcEEEEEppB8ue170006Ev, symObjAddr: 0x61D0, symBinAddr: 0x100007910, symSize: 0x20 }
  - { offsetInCU: 0x12F14, offset: 0x12F14, size: 0x8, addend: 0x0, symName: __ZNKSt3__116reverse_iteratorIPNS_12basic_stringIcNS_11char_traitsIcEENS_9allocatorIcEEEEE4baseB8ue170006Ev, symObjAddr: 0x61F0, symBinAddr: 0x100007930, symSize: 0x20 }
  - { offsetInCU: 0x12F3A, offset: 0x12F3A, size: 0x8, addend: 0x0, symName: __ZNSt3__19allocatorINS_12basic_stringIcNS_11char_traitsIcEENS0_IcEEEEE7destroyB8ue170006EPS5_, symObjAddr: 0x6210, symBinAddr: 0x100007950, symSize: 0x20 }
  - { offsetInCU: 0x12F73, offset: 0x12F73, size: 0x8, addend: 0x0, symName: __ZNSt3__119__to_address_helperINS_16reverse_iteratorIPNS_12basic_stringIcNS_11char_traitsIcEENS_9allocatorIcEEEEEEvE6__callB8ue170006ERKS9_, symObjAddr: 0x6230, symBinAddr: 0x100007970, symSize: 0x40 }
  - { offsetInCU: 0x12F96, offset: 0x12F96, size: 0x8, addend: 0x0, symName: __ZNKSt3__116reverse_iteratorIPNS_12basic_stringIcNS_11char_traitsIcEENS_9allocatorIcEEEEEptB8ue170006Ev, symObjAddr: 0x6270, symBinAddr: 0x1000079B0, symSize: 0x20 }
  - { offsetInCU: 0x12FBC, offset: 0x12FBC, size: 0x8, addend: 0x0, symName: __ZNKSt3__116reverse_iteratorIPNS_12basic_stringIcNS_11char_traitsIcEENS_9allocatorIcEEEEEdeB8ue170006Ev, symObjAddr: 0x6290, symBinAddr: 0x1000079D0, symSize: 0x30 }
  - { offsetInCU: 0x12FF0, offset: 0x12FF0, size: 0x8, addend: 0x0, symName: __ZNSt3__116reverse_iteratorIPNS_12basic_stringIcNS_11char_traitsIcEENS_9allocatorIcEEEEEC2B8ue170006ES7_, symObjAddr: 0x62C0, symBinAddr: 0x100007A00, symSize: 0x30 }
  - { offsetInCU: 0x13028, offset: 0x13028, size: 0x8, addend: 0x0, symName: __ZNSt3__118__unwrap_iter_implIPNS_12basic_stringIcNS_11char_traitsIcEENS_9allocatorIcEEEELb1EE8__unwrapB8ue170006ES7_, symObjAddr: 0x62F0, symBinAddr: 0x100007A30, symSize: 0x20 }
  - { offsetInCU: 0x1304B, offset: 0x1304B, size: 0x8, addend: 0x0, symName: __ZNSt3__118__unwrap_iter_implIPNS_12basic_stringIcNS_11char_traitsIcEENS_9allocatorIcEEEELb1EE8__rewrapB8ue170006ES7_S7_, symObjAddr: 0x6310, symBinAddr: 0x100007A50, symSize: 0x60 }
  - { offsetInCU: 0x1307C, offset: 0x1307C, size: 0x8, addend: 0x0, symName: __ZNSt3__16vectorINS_12basic_stringIcNS_11char_traitsIcEENS_9allocatorIcEEEENS4_IS6_EEE21_ConstructTransactionD2B8ue170006Ev, symObjAddr: 0x6370, symBinAddr: 0x100007AB0, symSize: 0x20 }
  - { offsetInCU: 0x130A6, offset: 0x130A6, size: 0x8, addend: 0x0, symName: __ZNSt3__128__exception_guard_exceptionsINS_6vectorINS_12basic_stringIcNS_11char_traitsIcEENS_9allocatorIcEEEENS5_IS7_EEE16__destroy_vectorEED2B8ue170006Ev, symObjAddr: 0x6390, symBinAddr: 0x100007AD0, symSize: 0x40 }
  - { offsetInCU: 0x130D0, offset: 0x130D0, size: 0x8, addend: 0x0, symName: __ZNSt3__16vectorINS_12basic_stringIcNS_11char_traitsIcEENS_9allocatorIcEEEENS4_IS6_EEE16__destroy_vectorclB8ue170006Ev, symObjAddr: 0x63D0, symBinAddr: 0x100007B10, symSize: 0x80 }
  - { offsetInCU: 0x130F6, offset: 0x130F6, size: 0x8, addend: 0x0, symName: __ZNSt3__16vectorINS_12basic_stringIcNS_11char_traitsIcEENS_9allocatorIcEEEENS4_IS6_EEE7__clearB8ue170006Ev, symObjAddr: 0x6450, symBinAddr: 0x100007B90, symSize: 0x20 }
  - { offsetInCU: 0x1311C, offset: 0x1311C, size: 0x8, addend: 0x0, symName: __ZNKSt3__16vectorINS_12basic_stringIcNS_11char_traitsIcEENS_9allocatorIcEEEENS4_IS6_EEE17__annotate_deleteB8ue170006Ev, symObjAddr: 0x6470, symBinAddr: 0x100007BB0, symSize: 0xB0 }
  - { offsetInCU: 0x13142, offset: 0x13142, size: 0x8, addend: 0x0, symName: __ZNSt3__116allocator_traitsINS_9allocatorINS_12basic_stringIcNS_11char_traitsIcEENS1_IcEEEEEEE10deallocateB8ue170006ERS7_PS6_m, symObjAddr: 0x6520, symBinAddr: 0x100007C60, symSize: 0x30 }
  - { offsetInCU: 0x13184, offset: 0x13184, size: 0x8, addend: 0x0, symName: __ZNSt3__16vectorINS_12basic_stringIcNS_11char_traitsIcEENS_9allocatorIcEEEENS4_IS6_EEE22__base_destruct_at_endB8ue170006EPS6_, symObjAddr: 0x6550, symBinAddr: 0x100007C90, symSize: 0x80 }
  - { offsetInCU: 0x131C8, offset: 0x131C8, size: 0x8, addend: 0x0, symName: __ZNKSt3__16vectorINS_12basic_stringIcNS_11char_traitsIcEENS_9allocatorIcEEEENS4_IS6_EEE4sizeB8ue170006Ev, symObjAddr: 0x65D0, symBinAddr: 0x100007D10, symSize: 0x30 }
  - { offsetInCU: 0x131EE, offset: 0x131EE, size: 0x8, addend: 0x0, symName: __ZNSt3__19allocatorINS_12basic_stringIcNS_11char_traitsIcEENS0_IcEEEEE10deallocateB8ue170006EPS5_m, symObjAddr: 0x6600, symBinAddr: 0x100007D40, symSize: 0x50 }
  - { offsetInCU: 0x13230, offset: 0x13230, size: 0x8, addend: 0x0, symName: __ZNSt3__16vectorINS_12basic_stringIcNS_11char_traitsIcEENS_9allocatorIcEEEENS4_IS6_EEED2B8ue170006Ev, symObjAddr: 0x66C0, symBinAddr: 0x100007E00, symSize: 0x40 }
  - { offsetInCU: 0x1325A, offset: 0x1325A, size: 0x8, addend: 0x0, symName: __ZNSt3__16vectorIN4ezgl7point2dENS_9allocatorIS2_EEEC2B8ue170006ESt16initializer_listIS2_E, symObjAddr: 0x6700, symBinAddr: 0x100007E40, symSize: 0x110 }
  - { offsetInCU: 0x132AA, offset: 0x132AA, size: 0x8, addend: 0x0, symName: __ZNSt3__117__compressed_pairIPN4ezgl7point2dENS_9allocatorIS2_EEEC1B8ue170006IDnNS_18__default_init_tagEEEOT_OT0_, symObjAddr: 0x6810, symBinAddr: 0x100007F50, symSize: 0x30 }
  - { offsetInCU: 0x13302, offset: 0x13302, size: 0x8, addend: 0x0, symName: __ZNSt3__16vectorIN4ezgl7point2dENS_9allocatorIS2_EEE16__destroy_vectorC1B8ue170006ERS5_, symObjAddr: 0x6880, symBinAddr: 0x100007FC0, symSize: 0x30 }
  - { offsetInCU: 0x1333B, offset: 0x1333B, size: 0x8, addend: 0x0, symName: __ZNKSt16initializer_listIN4ezgl7point2dEE4sizeB8ue170006Ev, symObjAddr: 0x68B0, symBinAddr: 0x100007FF0, symSize: 0x20 }
  - { offsetInCU: 0x13361, offset: 0x13361, size: 0x8, addend: 0x0, symName: __ZNSt3__16vectorIN4ezgl7point2dENS_9allocatorIS2_EEE11__vallocateB8ue170006Em, symObjAddr: 0x68D0, symBinAddr: 0x100008010, symSize: 0xA0 }
  - { offsetInCU: 0x133A5, offset: 0x133A5, size: 0x8, addend: 0x0, symName: __ZNSt3__16vectorIN4ezgl7point2dENS_9allocatorIS2_EEE18__construct_at_endIPKS2_S8_EEvT_T0_m, symObjAddr: 0x6970, symBinAddr: 0x1000080B0, symSize: 0x90 }
  - { offsetInCU: 0x1341B, offset: 0x1341B, size: 0x8, addend: 0x0, symName: __ZNKSt16initializer_listIN4ezgl7point2dEE5beginB8ue170006Ev, symObjAddr: 0x6A00, symBinAddr: 0x100008140, symSize: 0x20 }
  - { offsetInCU: 0x13441, offset: 0x13441, size: 0x8, addend: 0x0, symName: __ZNKSt16initializer_listIN4ezgl7point2dEE3endB8ue170006Ev, symObjAddr: 0x6A20, symBinAddr: 0x100008160, symSize: 0x20 }
  - { offsetInCU: 0x13467, offset: 0x13467, size: 0x8, addend: 0x0, symName: __ZNSt3__128__exception_guard_exceptionsINS_6vectorIN4ezgl7point2dENS_9allocatorIS3_EEE16__destroy_vectorEE10__completeB8ue170006Ev, symObjAddr: 0x6A40, symBinAddr: 0x100008180, symSize: 0x20 }
  - { offsetInCU: 0x1348D, offset: 0x1348D, size: 0x8, addend: 0x0, symName: __ZNSt3__128__exception_guard_exceptionsINS_6vectorIN4ezgl7point2dENS_9allocatorIS3_EEE16__destroy_vectorEED1B8ue170006Ev, symObjAddr: 0x6A60, symBinAddr: 0x1000081A0, symSize: 0x20 }
  - { offsetInCU: 0x134B7, offset: 0x134B7, size: 0x8, addend: 0x0, symName: __ZNSt3__117__compressed_pairIPN4ezgl7point2dENS_9allocatorIS2_EEEC2B8ue170006IDnNS_18__default_init_tagEEEOT_OT0_, symObjAddr: 0x6A80, symBinAddr: 0x1000081C0, symSize: 0x40 }
  - { offsetInCU: 0x1350F, offset: 0x1350F, size: 0x8, addend: 0x0, symName: __ZNSt3__122__compressed_pair_elemIPN4ezgl7point2dELi0ELb0EEC2B8ue170006IDnvEEOT_, symObjAddr: 0x6AC0, symBinAddr: 0x100008200, symSize: 0x20 }
  - { offsetInCU: 0x13551, offset: 0x13551, size: 0x8, addend: 0x0, symName: __ZNSt3__122__compressed_pair_elemINS_9allocatorIN4ezgl7point2dEEELi1ELb1EEC2B8ue170006ENS_18__default_init_tagE, symObjAddr: 0x6AE0, symBinAddr: 0x100008220, symSize: 0x20 }
  - { offsetInCU: 0x13586, offset: 0x13586, size: 0x8, addend: 0x0, symName: __ZNSt3__19allocatorIN4ezgl7point2dEEC2B8ue170006Ev, symObjAddr: 0x6B00, symBinAddr: 0x100008240, symSize: 0x20 }
  - { offsetInCU: 0x135B0, offset: 0x135B0, size: 0x8, addend: 0x0, symName: __ZNSt3__116__non_trivial_ifILb1ENS_9allocatorIN4ezgl7point2dEEEEC2B8ue170006Ev, symObjAddr: 0x6B20, symBinAddr: 0x100008260, symSize: 0x10 }
  - { offsetInCU: 0x135DA, offset: 0x135DA, size: 0x8, addend: 0x0, symName: __ZNSt3__128__exception_guard_exceptionsINS_6vectorIN4ezgl7point2dENS_9allocatorIS3_EEE16__destroy_vectorEEC1B8ue170006ES7_, symObjAddr: 0x6B30, symBinAddr: 0x100008270, symSize: 0x30 }
  - { offsetInCU: 0x13612, offset: 0x13612, size: 0x8, addend: 0x0, symName: __ZNSt3__128__exception_guard_exceptionsINS_6vectorIN4ezgl7point2dENS_9allocatorIS3_EEE16__destroy_vectorEEC2B8ue170006ES7_, symObjAddr: 0x6B60, symBinAddr: 0x1000082A0, symSize: 0x20 }
  - { offsetInCU: 0x1364A, offset: 0x1364A, size: 0x8, addend: 0x0, symName: __ZNSt3__16vectorIN4ezgl7point2dENS_9allocatorIS2_EEE16__destroy_vectorC2B8ue170006ERS5_, symObjAddr: 0x6B80, symBinAddr: 0x1000082C0, symSize: 0x20 }
  - { offsetInCU: 0x13683, offset: 0x13683, size: 0x8, addend: 0x0, symName: __ZNKSt3__16vectorIN4ezgl7point2dENS_9allocatorIS2_EEE8max_sizeEv, symObjAddr: 0x6BA0, symBinAddr: 0x1000082E0, symSize: 0x60 }
  - { offsetInCU: 0x136AB, offset: 0x136AB, size: 0x8, addend: 0x0, symName: __ZNKSt3__16vectorIN4ezgl7point2dENS_9allocatorIS2_EEE20__throw_length_errorB8ue170006Ev, symObjAddr: 0x6C00, symBinAddr: 0x100008340, symSize: 0x20 }
  - { offsetInCU: 0x136D1, offset: 0x136D1, size: 0x8, addend: 0x0, symName: __ZNSt3__16vectorIN4ezgl7point2dENS_9allocatorIS2_EEE7__allocB8ue170006Ev, symObjAddr: 0x6C60, symBinAddr: 0x1000083A0, symSize: 0x20 }
  - { offsetInCU: 0x136F7, offset: 0x136F7, size: 0x8, addend: 0x0, symName: __ZNSt3__16vectorIN4ezgl7point2dENS_9allocatorIS2_EEE9__end_capB8ue170006Ev, symObjAddr: 0x6C80, symBinAddr: 0x1000083C0, symSize: 0x20 }
  - { offsetInCU: 0x1371D, offset: 0x1371D, size: 0x8, addend: 0x0, symName: __ZNKSt3__16vectorIN4ezgl7point2dENS_9allocatorIS2_EEE14__annotate_newB8ue170006Em, symObjAddr: 0x6CA0, symBinAddr: 0x1000083E0, symSize: 0xB0 }
  - { offsetInCU: 0x1375C, offset: 0x1375C, size: 0x8, addend: 0x0, symName: __ZNSt3__116allocator_traitsINS_9allocatorIN4ezgl7point2dEEEE8max_sizeB8ue170006IS4_vEEmRKS4_, symObjAddr: 0x6D50, symBinAddr: 0x100008490, symSize: 0x20 }
  - { offsetInCU: 0x1378A, offset: 0x1378A, size: 0x8, addend: 0x0, symName: __ZNKSt3__16vectorIN4ezgl7point2dENS_9allocatorIS2_EEE7__allocB8ue170006Ev, symObjAddr: 0x6D70, symBinAddr: 0x1000084B0, symSize: 0x20 }
  - { offsetInCU: 0x137B0, offset: 0x137B0, size: 0x8, addend: 0x0, symName: __ZNKSt3__19allocatorIN4ezgl7point2dEE8max_sizeB8ue170006Ev, symObjAddr: 0x6D90, symBinAddr: 0x1000084D0, symSize: 0x20 }
  - { offsetInCU: 0x137D6, offset: 0x137D6, size: 0x8, addend: 0x0, symName: __ZNKSt3__117__compressed_pairIPN4ezgl7point2dENS_9allocatorIS2_EEE6secondB8ue170006Ev, symObjAddr: 0x6DB0, symBinAddr: 0x1000084F0, symSize: 0x20 }
  - { offsetInCU: 0x137FC, offset: 0x137FC, size: 0x8, addend: 0x0, symName: __ZNKSt3__122__compressed_pair_elemINS_9allocatorIN4ezgl7point2dEEELi1ELb1EE5__getB8ue170006Ev, symObjAddr: 0x6DD0, symBinAddr: 0x100008510, symSize: 0x10 }
  - { offsetInCU: 0x13822, offset: 0x13822, size: 0x8, addend: 0x0, symName: __ZNSt3__19allocatorIN4ezgl7point2dEE8allocateB8ue170006Em, symObjAddr: 0x6DE0, symBinAddr: 0x100008520, symSize: 0x50 }
  - { offsetInCU: 0x13856, offset: 0x13856, size: 0x8, addend: 0x0, symName: __ZNSt3__117__compressed_pairIPN4ezgl7point2dENS_9allocatorIS2_EEE6secondB8ue170006Ev, symObjAddr: 0x6E30, symBinAddr: 0x100008570, symSize: 0x20 }
  - { offsetInCU: 0x1387C, offset: 0x1387C, size: 0x8, addend: 0x0, symName: __ZNSt3__122__compressed_pair_elemINS_9allocatorIN4ezgl7point2dEEELi1ELb1EE5__getB8ue170006Ev, symObjAddr: 0x6E50, symBinAddr: 0x100008590, symSize: 0x10 }
  - { offsetInCU: 0x138A2, offset: 0x138A2, size: 0x8, addend: 0x0, symName: __ZNSt3__117__compressed_pairIPN4ezgl7point2dENS_9allocatorIS2_EEE5firstB8ue170006Ev, symObjAddr: 0x6E60, symBinAddr: 0x1000085A0, symSize: 0x20 }
  - { offsetInCU: 0x138C8, offset: 0x138C8, size: 0x8, addend: 0x0, symName: __ZNSt3__122__compressed_pair_elemIPN4ezgl7point2dELi0ELb0EE5__getB8ue170006Ev, symObjAddr: 0x6E80, symBinAddr: 0x1000085C0, symSize: 0x10 }
  - { offsetInCU: 0x138EE, offset: 0x138EE, size: 0x8, addend: 0x0, symName: __ZNKSt3__16vectorIN4ezgl7point2dENS_9allocatorIS2_EEE31__annotate_contiguous_containerB8ue170006EPKvS7_S7_S7_, symObjAddr: 0x6E90, symBinAddr: 0x1000085D0, symSize: 0x20 }
  - { offsetInCU: 0x13940, offset: 0x13940, size: 0x8, addend: 0x0, symName: __ZNKSt3__16vectorIN4ezgl7point2dENS_9allocatorIS2_EEE4dataB8ue170006Ev, symObjAddr: 0x6EB0, symBinAddr: 0x1000085F0, symSize: 0x20 }
  - { offsetInCU: 0x13966, offset: 0x13966, size: 0x8, addend: 0x0, symName: __ZNKSt3__16vectorIN4ezgl7point2dENS_9allocatorIS2_EEE8capacityB8ue170006Ev, symObjAddr: 0x6ED0, symBinAddr: 0x100008610, symSize: 0x30 }
  - { offsetInCU: 0x1398C, offset: 0x1398C, size: 0x8, addend: 0x0, symName: __ZNKSt3__16vectorIN4ezgl7point2dENS_9allocatorIS2_EEE9__end_capB8ue170006Ev, symObjAddr: 0x6F10, symBinAddr: 0x100008650, symSize: 0x20 }
  - { offsetInCU: 0x139B2, offset: 0x139B2, size: 0x8, addend: 0x0, symName: __ZNKSt3__117__compressed_pairIPN4ezgl7point2dENS_9allocatorIS2_EEE5firstB8ue170006Ev, symObjAddr: 0x6F30, symBinAddr: 0x100008670, symSize: 0x20 }
  - { offsetInCU: 0x139D8, offset: 0x139D8, size: 0x8, addend: 0x0, symName: __ZNKSt3__122__compressed_pair_elemIPN4ezgl7point2dELi0ELb0EE5__getB8ue170006Ev, symObjAddr: 0x6F50, symBinAddr: 0x100008690, symSize: 0x10 }
  - { offsetInCU: 0x13A17, offset: 0x13A17, size: 0x8, addend: 0x0, symName: __ZNSt3__16vectorIN4ezgl7point2dENS_9allocatorIS2_EEE21_ConstructTransactionC1B8ue170006ERS5_m, symObjAddr: 0x6F60, symBinAddr: 0x1000086A0, symSize: 0x30 }
  - { offsetInCU: 0x13A5F, offset: 0x13A5F, size: 0x8, addend: 0x0, symName: __ZNSt3__16vectorIN4ezgl7point2dENS_9allocatorIS2_EEE21_ConstructTransactionD1B8ue170006Ev, symObjAddr: 0x7010, symBinAddr: 0x100008750, symSize: 0x20 }
  - { offsetInCU: 0x13A89, offset: 0x13A89, size: 0x8, addend: 0x0, symName: __ZNSt3__16vectorIN4ezgl7point2dENS_9allocatorIS2_EEE21_ConstructTransactionC2B8ue170006ERS5_m, symObjAddr: 0x7030, symBinAddr: 0x100008770, symSize: 0x40 }
  - { offsetInCU: 0x13AF1, offset: 0x13AF1, size: 0x8, addend: 0x0, symName: __ZNSt3__14pairIPKN4ezgl7point2dES4_EC1B8ue170006IS4_S4_LPv0EEEOT_OT0_, symObjAddr: 0x71A0, symBinAddr: 0x1000088E0, symSize: 0x30 }
  - { offsetInCU: 0x13B4F, offset: 0x13B4F, size: 0x8, addend: 0x0, symName: __ZNSt3__14pairIPKN4ezgl7point2dES4_EC2B8ue170006IS4_S4_LPv0EEEOT_OT0_, symObjAddr: 0x71D0, symBinAddr: 0x100008910, symSize: 0x30 }
  - { offsetInCU: 0x13BAD, offset: 0x13BAD, size: 0x8, addend: 0x0, symName: __ZNSt3__118__unwrap_iter_implIPKN4ezgl7point2dELb1EE8__unwrapB8ue170006ES4_, symObjAddr: 0x7200, symBinAddr: 0x100008940, symSize: 0x20 }
  - { offsetInCU: 0x13BF4, offset: 0x13BF4, size: 0x8, addend: 0x0, symName: __ZNKSt3__114__copy_trivialclB8ue170006IKN4ezgl7point2dES3_Li0EEENS_4pairIPT_PT0_EES7_S7_S9_, symObjAddr: 0x73A0, symBinAddr: 0x100008AE0, symSize: 0x40 }
  - { offsetInCU: 0x13C67, offset: 0x13C67, size: 0x8, addend: 0x0, symName: __ZNSt3__14pairIPKN4ezgl7point2dEPS2_EC1B8ue170006IRS4_S5_LPv0EEEOT_OT0_, symObjAddr: 0x7530, symBinAddr: 0x100008C70, symSize: 0x30 }
  - { offsetInCU: 0x13CC5, offset: 0x13CC5, size: 0x8, addend: 0x0, symName: __ZNSt3__14pairIPKN4ezgl7point2dEPS2_EC2B8ue170006IRS4_S5_LPv0EEEOT_OT0_, symObjAddr: 0x7560, symBinAddr: 0x100008CA0, symSize: 0x30 }
  - { offsetInCU: 0x13D23, offset: 0x13D23, size: 0x8, addend: 0x0, symName: __ZNSt3__14pairIPKN4ezgl7point2dEPS2_EC1B8ue170006IS4_S5_LPv0EEEOT_OT0_, symObjAddr: 0x7590, symBinAddr: 0x100008CD0, symSize: 0x30 }
  - { offsetInCU: 0x13D81, offset: 0x13D81, size: 0x8, addend: 0x0, symName: __ZNSt3__14pairIPKN4ezgl7point2dEPS2_EC2B8ue170006IS4_S5_LPv0EEEOT_OT0_, symObjAddr: 0x75C0, symBinAddr: 0x100008D00, symSize: 0x30 }
  - { offsetInCU: 0x13DDF, offset: 0x13DDF, size: 0x8, addend: 0x0, symName: __ZNSt3__118__unwrap_iter_implIPKN4ezgl7point2dELb1EE8__rewrapB8ue170006ES4_S4_, symObjAddr: 0x7630, symBinAddr: 0x100008D70, symSize: 0x50 }
  - { offsetInCU: 0x13E10, offset: 0x13E10, size: 0x8, addend: 0x0, symName: __ZNSt3__118__unwrap_iter_implIPN4ezgl7point2dELb1EE8__unwrapB8ue170006ES3_, symObjAddr: 0x7680, symBinAddr: 0x100008DC0, symSize: 0x20 }
  - { offsetInCU: 0x13E33, offset: 0x13E33, size: 0x8, addend: 0x0, symName: __ZNSt3__118__unwrap_iter_implIPN4ezgl7point2dELb1EE8__rewrapB8ue170006ES3_S3_, symObjAddr: 0x76A0, symBinAddr: 0x100008DE0, symSize: 0x50 }
  - { offsetInCU: 0x13E64, offset: 0x13E64, size: 0x8, addend: 0x0, symName: __ZNSt3__16vectorIN4ezgl7point2dENS_9allocatorIS2_EEE21_ConstructTransactionD2B8ue170006Ev, symObjAddr: 0x76F0, symBinAddr: 0x100008E30, symSize: 0x20 }
  - { offsetInCU: 0x13E8E, offset: 0x13E8E, size: 0x8, addend: 0x0, symName: __ZNSt3__128__exception_guard_exceptionsINS_6vectorIN4ezgl7point2dENS_9allocatorIS3_EEE16__destroy_vectorEED2B8ue170006Ev, symObjAddr: 0x7710, symBinAddr: 0x100008E50, symSize: 0x40 }
  - { offsetInCU: 0x13EB8, offset: 0x13EB8, size: 0x8, addend: 0x0, symName: __ZNSt3__16vectorIN4ezgl7point2dENS_9allocatorIS2_EEE16__destroy_vectorclB8ue170006Ev, symObjAddr: 0x7750, symBinAddr: 0x100008E90, symSize: 0x80 }
  - { offsetInCU: 0x13EDE, offset: 0x13EDE, size: 0x8, addend: 0x0, symName: __ZNSt3__16vectorIN4ezgl7point2dENS_9allocatorIS2_EEE7__clearB8ue170006Ev, symObjAddr: 0x77D0, symBinAddr: 0x100008F10, symSize: 0x20 }
  - { offsetInCU: 0x13F04, offset: 0x13F04, size: 0x8, addend: 0x0, symName: __ZNKSt3__16vectorIN4ezgl7point2dENS_9allocatorIS2_EEE17__annotate_deleteB8ue170006Ev, symObjAddr: 0x77F0, symBinAddr: 0x100008F30, symSize: 0xB0 }
  - { offsetInCU: 0x13F2A, offset: 0x13F2A, size: 0x8, addend: 0x0, symName: __ZNSt3__116allocator_traitsINS_9allocatorIN4ezgl7point2dEEEE10deallocateB8ue170006ERS4_PS3_m, symObjAddr: 0x78A0, symBinAddr: 0x100008FE0, symSize: 0x30 }
  - { offsetInCU: 0x13F6C, offset: 0x13F6C, size: 0x8, addend: 0x0, symName: __ZNSt3__16vectorIN4ezgl7point2dENS_9allocatorIS2_EEE22__base_destruct_at_endB8ue170006EPS2_, symObjAddr: 0x78D0, symBinAddr: 0x100009010, symSize: 0x80 }
  - { offsetInCU: 0x13FB0, offset: 0x13FB0, size: 0x8, addend: 0x0, symName: __ZNSt3__116allocator_traitsINS_9allocatorIN4ezgl7point2dEEEE7destroyB8ue170006IS3_vEEvRS4_PT_, symObjAddr: 0x7950, symBinAddr: 0x100009090, symSize: 0x30 }
  - { offsetInCU: 0x13FED, offset: 0x13FED, size: 0x8, addend: 0x0, symName: __ZNSt3__19allocatorIN4ezgl7point2dEE7destroyB8ue170006EPS2_, symObjAddr: 0x7980, symBinAddr: 0x1000090C0, symSize: 0x10 }
  - { offsetInCU: 0x14021, offset: 0x14021, size: 0x8, addend: 0x0, symName: __ZNKSt3__16vectorIN4ezgl7point2dENS_9allocatorIS2_EEE4sizeB8ue170006Ev, symObjAddr: 0x7990, symBinAddr: 0x1000090D0, symSize: 0x20 }
  - { offsetInCU: 0x14047, offset: 0x14047, size: 0x8, addend: 0x0, symName: __ZNSt3__19allocatorIN4ezgl7point2dEE10deallocateB8ue170006EPS2_m, symObjAddr: 0x79B0, symBinAddr: 0x1000090F0, symSize: 0x40 }
  - { offsetInCU: 0x14089, offset: 0x14089, size: 0x8, addend: 0x0, symName: __ZNSt3__16vectorIN4ezgl7point2dENS_9allocatorIS2_EEED2B8ue170006Ev, symObjAddr: 0x79F0, symBinAddr: 0x100009130, symSize: 0x40 }
  - { offsetInCU: 0x140B3, offset: 0x140B3, size: 0x8, addend: 0x0, symName: __ZNSt3__16chrono8durationIxNS_5ratioILl1ELl1000EEEE4zeroB8ue170006Ev, symObjAddr: 0x7A60, symBinAddr: 0x1000091A0, symSize: 0x40 }
  - { offsetInCU: 0x140C7, offset: 0x140C7, size: 0x8, addend: 0x0, symName: __ZNSt3__16chrono8durationIxNS_5ratioILl1ELl1000000000EEEEppB8ue170006Ev, symObjAddr: 0x7B30, symBinAddr: 0x100009270, symSize: 0x20 }
  - { offsetInCU: 0x140ED, offset: 0x140ED, size: 0x8, addend: 0x0, symName: __ZNSt3__16chrono8durationIxNS_5ratioILl1ELl1000000000EEEE3maxB8ue170006Ev, symObjAddr: 0x7B50, symBinAddr: 0x100009290, symSize: 0x40 }
  - { offsetInCU: 0x1410B, offset: 0x1410B, size: 0x8, addend: 0x0, symName: __ZNKSt3__16chrono13__duration_ltINS0_8durationIxNS_5ratioILl1ELl1000EEEEES5_EclB8ue170006ERKS5_S8_, symObjAddr: 0x7BC0, symBinAddr: 0x100009300, symSize: 0x50 }
  - { offsetInCU: 0x1414F, offset: 0x1414F, size: 0x8, addend: 0x0, symName: __ZNKSt3__16chrono8durationIxNS_5ratioILl1ELl1000EEEE5countB8ue170006Ev, symObjAddr: 0x7C10, symBinAddr: 0x100009350, symSize: 0x20 }
  - { offsetInCU: 0x14175, offset: 0x14175, size: 0x8, addend: 0x0, symName: __ZNSt3__16chrono15duration_valuesIxE4zeroB8ue170006Ev, symObjAddr: 0x7C30, symBinAddr: 0x100009370, symSize: 0x10 }
  - { offsetInCU: 0x14198, offset: 0x14198, size: 0x8, addend: 0x0, symName: __ZNSt3__16chrono8durationIxNS_5ratioILl1ELl1000EEEEC1B8ue170006IxEERKT_PNS_9enable_ifIXaasr14is_convertibleIS8_xEE5valueooL_ZNS_17integral_constantIbLb0EE5valueEEntsr23treat_as_floating_pointIS6_EE5valueEvE4typeE, symObjAddr: 0x7C40, symBinAddr: 0x100009380, symSize: 0x30 }
  - { offsetInCU: 0x141E4, offset: 0x141E4, size: 0x8, addend: 0x0, symName: __ZNSt3__16chrono8durationIxNS_5ratioILl1ELl1000EEEEC2B8ue170006IxEERKT_PNS_9enable_ifIXaasr14is_convertibleIS8_xEE5valueooL_ZNS_17integral_constantIbLb0EE5valueEEntsr23treat_as_floating_pointIS6_EE5valueEvE4typeE, symObjAddr: 0x7C70, symBinAddr: 0x1000093B0, symSize: 0x20 }
  - { offsetInCU: 0x14230, offset: 0x14230, size: 0x8, addend: 0x0, symName: __ZNSt3__16chrono8durationIeNS_5ratioILl1ELl1000EEEEC1B8ue170006IxS3_EERKNS1_IT_T0_EEPNS_9enable_ifIXaasr13__no_overflowIS7_S3_EE5valueooL_ZNS_17integral_constantIbLb1EE5valueEEaaeqsr13__no_overflowIS7_S3_E4typeE3denLi1Entsr23treat_as_floating_pointIS6_EE5valueEvE4typeE, symObjAddr: 0x7D00, symBinAddr: 0x100009440, symSize: 0x30 }
  - { offsetInCU: 0x14286, offset: 0x14286, size: 0x8, addend: 0x0, symName: __ZNKSt3__16chrono8durationIeNS_5ratioILl1ELl1000EEEE5countB8ue170006Ev, symObjAddr: 0x7D30, symBinAddr: 0x100009470, symSize: 0x10 }
  - { offsetInCU: 0x142AC, offset: 0x142AC, size: 0x8, addend: 0x0, symName: __ZNSt3__16chrono8durationIeNS_5ratioILl1ELl1000EEEEC1B8ue170006IeNS2_ILl1ELl1EEEEERKNS1_IT_T0_EEPNS_9enable_ifIXaasr13__no_overflowIS8_S3_EE5valueooL_ZNS_17integral_constantIbLb1EE5valueEEaaeqsr13__no_overflowIS8_S3_E4typeE3denLi1Entsr23treat_as_floating_pointIS7_EE5valueEvE4typeE, symObjAddr: 0x7D40, symBinAddr: 0x100009480, symSize: 0x30 }
  - { offsetInCU: 0x14302, offset: 0x14302, size: 0x8, addend: 0x0, symName: __ZNSt3__16chrono8durationIeNS_5ratioILl1ELl1000EEEEC2B8ue170006IxS3_EERKNS1_IT_T0_EEPNS_9enable_ifIXaasr13__no_overflowIS7_S3_EE5valueooL_ZNS_17integral_constantIbLb1EE5valueEEaaeqsr13__no_overflowIS7_S3_E4typeE3denLi1Entsr23treat_as_floating_pointIS6_EE5valueEvE4typeE, symObjAddr: 0x7D70, symBinAddr: 0x1000094B0, symSize: 0x40 }
  - { offsetInCU: 0x14362, offset: 0x14362, size: 0x8, addend: 0x0, symName: __ZNKSt3__16chrono15__duration_castINS0_8durationIxNS_5ratioILl1ELl1000EEEEENS2_IeS4_EENS3_ILl1ELl1EEELb1ELb1EEclB8ue170006ERKS5_, symObjAddr: 0x7DE0, symBinAddr: 0x100009520, symSize: 0x40 }
  - { offsetInCU: 0x143A0, offset: 0x143A0, size: 0x8, addend: 0x0, symName: __ZNSt3__16chrono8durationIeNS_5ratioILl1ELl1000EEEEC1B8ue170006IeEERKT_PNS_9enable_ifIXaasr14is_convertibleIS8_eEE5valueooL_ZNS_17integral_constantIbLb1EE5valueEEntsr23treat_as_floating_pointIS6_EE5valueEvE4typeE, symObjAddr: 0x7E20, symBinAddr: 0x100009560, symSize: 0x30 }
  - { offsetInCU: 0x143EC, offset: 0x143EC, size: 0x8, addend: 0x0, symName: __ZNSt3__16chrono8durationIeNS_5ratioILl1ELl1000EEEEC2B8ue170006IeEERKT_PNS_9enable_ifIXaasr14is_convertibleIS8_eEE5valueooL_ZNS_17integral_constantIbLb1EE5valueEEntsr23treat_as_floating_pointIS6_EE5valueEvE4typeE, symObjAddr: 0x7E50, symBinAddr: 0x100009590, symSize: 0x20 }
  - { offsetInCU: 0x14438, offset: 0x14438, size: 0x8, addend: 0x0, symName: __ZNSt3__16chrono8durationIeNS_5ratioILl1ELl1000EEEEC2B8ue170006IeNS2_ILl1ELl1EEEEERKNS1_IT_T0_EEPNS_9enable_ifIXaasr13__no_overflowIS8_S3_EE5valueooL_ZNS_17integral_constantIbLb1EE5valueEEaaeqsr13__no_overflowIS8_S3_E4typeE3denLi1Entsr23treat_as_floating_pointIS7_EE5valueEvE4typeE, symObjAddr: 0x7E70, symBinAddr: 0x1000095B0, symSize: 0x40 }
  - { offsetInCU: 0x1448E, offset: 0x1448E, size: 0x8, addend: 0x0, symName: __ZNKSt3__16chrono8durationIeNS_5ratioILl1ELl1EEEE5countB8ue170006Ev, symObjAddr: 0x7F20, symBinAddr: 0x100009660, symSize: 0x10 }
  - { offsetInCU: 0x144B4, offset: 0x144B4, size: 0x8, addend: 0x0, symName: __ZNSt3__16chrono8durationIxNS_5ratioILl1ELl1000000000EEEEC1B8ue170006IxEERKT_PNS_9enable_ifIXaasr14is_convertibleIS8_xEE5valueooL_ZNS_17integral_constantIbLb0EE5valueEEntsr23treat_as_floating_pointIS6_EE5valueEvE4typeE, symObjAddr: 0x7F70, symBinAddr: 0x1000096B0, symSize: 0x30 }
  - { offsetInCU: 0x14500, offset: 0x14500, size: 0x8, addend: 0x0, symName: __ZNSt3__16chrono8durationIxNS_5ratioILl1ELl1000000000EEEEC2B8ue170006IxEERKT_PNS_9enable_ifIXaasr14is_convertibleIS8_xEE5valueooL_ZNS_17integral_constantIbLb0EE5valueEEntsr23treat_as_floating_pointIS6_EE5valueEvE4typeE, symObjAddr: 0x7FA0, symBinAddr: 0x1000096E0, symSize: 0x20 }
  - { offsetInCU: 0x1454C, offset: 0x1454C, size: 0x8, addend: 0x0, symName: __ZNKSt3__16chrono8durationIxNS_5ratioILl1ELl1000000000EEEE5countB8ue170006Ev, symObjAddr: 0x8020, symBinAddr: 0x100009760, symSize: 0x20 }
  - { offsetInCU: 0x14572, offset: 0x14572, size: 0x8, addend: 0x0, symName: __ZNSt3__16chrono8durationIxNS_5ratioILl1ELl1000000000EEEEC1B8ue170006IxNS2_ILl1ELl1000EEEEERKNS1_IT_T0_EEPNS_9enable_ifIXaasr13__no_overflowIS8_S3_EE5valueooL_ZNS_17integral_constantIbLb0EE5valueEEaaeqsr13__no_overflowIS8_S3_E4typeE3denLi1Entsr23treat_as_floating_pointIS7_EE5valueEvE4typeE, symObjAddr: 0x8040, symBinAddr: 0x100009780, symSize: 0x30 }
  - { offsetInCU: 0x145C8, offset: 0x145C8, size: 0x8, addend: 0x0, symName: __ZNSt3__16chrono8durationIxNS_5ratioILl1ELl1000000000EEEEC2B8ue170006IxNS2_ILl1ELl1000EEEEERKNS1_IT_T0_EEPNS_9enable_ifIXaasr13__no_overflowIS8_S3_EE5valueooL_ZNS_17integral_constantIbLb0EE5valueEEaaeqsr13__no_overflowIS8_S3_E4typeE3denLi1Entsr23treat_as_floating_pointIS7_EE5valueEvE4typeE, symObjAddr: 0x8070, symBinAddr: 0x1000097B0, symSize: 0x50 }
  - { offsetInCU: 0x1461E, offset: 0x1461E, size: 0x8, addend: 0x0, symName: __ZNSt3__16chrono15duration_valuesIxE3maxB8ue170006Ev, symObjAddr: 0x80C0, symBinAddr: 0x100009800, symSize: 0x10 }
  - { offsetInCU: 0x14632, offset: 0x14632, size: 0x8, addend: 0x0, symName: __ZNSt3__114numeric_limitsIxE3maxB8ue170006Ev, symObjAddr: 0x80D0, symBinAddr: 0x100009810, symSize: 0x10 }
  - { offsetInCU: 0x14646, offset: 0x14646, size: 0x8, addend: 0x0, symName: __ZNSt3__123__libcpp_numeric_limitsIxLb1EE3maxB8ue170006Ev, symObjAddr: 0x80E0, symBinAddr: 0x100009820, symSize: 0x10 }
  - { offsetInCU: 0x14678, offset: 0x14678, size: 0x8, addend: 0x0, symName: __ZNKSt3__113basic_ostreamIcNS_11char_traitsIcEEE6sentrycvbB8ue170006Ev, symObjAddr: 0x82E0, symBinAddr: 0x100009A20, symSize: 0x20 }
  - { offsetInCU: 0x1469E, offset: 0x1469E, size: 0x8, addend: 0x0, symName: __ZNSt3__119ostreambuf_iteratorIcNS_11char_traitsIcEEEC1B8ue170006ERNS_13basic_ostreamIcS2_EE, symObjAddr: 0x8520, symBinAddr: 0x100009C60, symSize: 0x30 }
  - { offsetInCU: 0x146D6, offset: 0x146D6, size: 0x8, addend: 0x0, symName: __ZNKSt3__18ios_base5flagsB8ue170006Ev, symObjAddr: 0x8550, symBinAddr: 0x100009C90, symSize: 0x20 }
  - { offsetInCU: 0x146FE, offset: 0x146FE, size: 0x8, addend: 0x0, symName: __ZNKSt3__19basic_iosIcNS_11char_traitsIcEEE4fillB8ue170006Ev, symObjAddr: 0x8570, symBinAddr: 0x100009CB0, symSize: 0x70 }
  - { offsetInCU: 0x14726, offset: 0x14726, size: 0x8, addend: 0x0, symName: __ZNKSt3__119ostreambuf_iteratorIcNS_11char_traitsIcEEE6failedB8ue170006Ev, symObjAddr: 0x85E0, symBinAddr: 0x100009D20, symSize: 0x20 }
  - { offsetInCU: 0x1474C, offset: 0x1474C, size: 0x8, addend: 0x0, symName: __ZNSt3__19basic_iosIcNS_11char_traitsIcEEE8setstateB8ue170006Ej, symObjAddr: 0x8600, symBinAddr: 0x100009D40, symSize: 0x30 }
  - { offsetInCU: 0x14781, offset: 0x14781, size: 0x8, addend: 0x0, symName: __ZNKSt3__18ios_base5widthB8ue170006Ev, symObjAddr: 0x8630, symBinAddr: 0x100009D70, symSize: 0x20 }
  - { offsetInCU: 0x147A9, offset: 0x147A9, size: 0x8, addend: 0x0, symName: __ZNSt3__115basic_streambufIcNS_11char_traitsIcEEE5sputnB8ue170006EPKcl, symObjAddr: 0x8650, symBinAddr: 0x100009D90, symSize: 0x30 }
  - { offsetInCU: 0x147EB, offset: 0x147EB, size: 0x8, addend: 0x0, symName: __ZNSt3__112basic_stringIcNS_11char_traitsIcEENS_9allocatorIcEEEC1B8ue170006Emc, symObjAddr: 0x8680, symBinAddr: 0x100009DC0, symSize: 0x30 }
  - { offsetInCU: 0x14833, offset: 0x14833, size: 0x8, addend: 0x0, symName: __ZNSt3__18ios_base5widthB8ue170006El, symObjAddr: 0x86B0, symBinAddr: 0x100009DF0, symSize: 0x30 }
  - { offsetInCU: 0x14879, offset: 0x14879, size: 0x8, addend: 0x0, symName: __ZNSt3__112basic_stringIcNS_11char_traitsIcEENS_9allocatorIcEEEC2B8ue170006Emc, symObjAddr: 0x86E0, symBinAddr: 0x100009E20, symSize: 0x50 }
  - { offsetInCU: 0x148C1, offset: 0x148C1, size: 0x8, addend: 0x0, symName: __ZNSt3__119ostreambuf_iteratorIcNS_11char_traitsIcEEEC2B8ue170006ERNS_13basic_ostreamIcS2_EE, symObjAddr: 0x8730, symBinAddr: 0x100009E70, symSize: 0x50 }
  - { offsetInCU: 0x148F9, offset: 0x148F9, size: 0x8, addend: 0x0, symName: __ZNKSt3__19basic_iosIcNS_11char_traitsIcEEE5rdbufB8ue170006Ev, symObjAddr: 0x8780, symBinAddr: 0x100009EC0, symSize: 0x20 }
  - { offsetInCU: 0x14921, offset: 0x14921, size: 0x8, addend: 0x0, symName: __ZNKSt3__18ios_base5rdbufB8ue170006Ev, symObjAddr: 0x87A0, symBinAddr: 0x100009EE0, symSize: 0x20 }
  - { offsetInCU: 0x14947, offset: 0x14947, size: 0x8, addend: 0x0, symName: __ZNSt3__111char_traitsIcE11eq_int_typeB8ue170006Eii, symObjAddr: 0x87C0, symBinAddr: 0x100009F00, symSize: 0x20 }
  - { offsetInCU: 0x1497A, offset: 0x1497A, size: 0x8, addend: 0x0, symName: __ZNSt3__111char_traitsIcE3eofB8ue170006Ev, symObjAddr: 0x87E0, symBinAddr: 0x100009F20, symSize: 0x10 }
  - { offsetInCU: 0x1498E, offset: 0x1498E, size: 0x8, addend: 0x0, symName: __ZNKSt3__19basic_iosIcNS_11char_traitsIcEEE5widenB8ue170006Ec, symObjAddr: 0x87F0, symBinAddr: 0x100009F30, symSize: 0x80 }
  - { offsetInCU: 0x149F7, offset: 0x149F7, size: 0x8, addend: 0x0, symName: __ZNKSt3__15ctypeIcE5widenB8ue170006Ec, symObjAddr: 0x88A0, symBinAddr: 0x100009FE0, symSize: 0x30 }
  - { offsetInCU: 0x14A2C, offset: 0x14A2C, size: 0x8, addend: 0x0, symName: __ZNSt3__18ios_base8setstateB8ue170006Ej, symObjAddr: 0x88D0, symBinAddr: 0x10000A010, symSize: 0x24 }
  - { offsetInCU: 0x44, offset: 0x14C46, size: 0x8, addend: 0x0, symName: __ZN4ezgl18disable_event_loopE, symObjAddr: 0x5E92C, symBinAddr: 0x10001D060, symSize: 0x0 }
  - { offsetInCU: 0xCC0, offset: 0x158C2, size: 0x8, addend: 0x0, symName: __ZN4ezglL17default_popup_cbkEP10_GtkDialogiPNS_11applicationE, symObjAddr: 0x20E0, symBinAddr: 0x10000C040, symSize: 0x40 }
  - { offsetInCU: 0xD01, offset: 0x15903, size: 0x8, addend: 0x0, symName: __ZN4ezgl22set_disable_event_loopEb, symObjAddr: 0x2C00, symBinAddr: 0x10000CB60, symSize: 0x20 }
  - { offsetInCU: 0x7BDB, offset: 0x1C7DD, size: 0x8, addend: 0x0, symName: __ZNSt3__1neB8ue170006ERKNS_14__map_iteratorINS_15__tree_iteratorINS_12__value_typeINS_12basic_stringIcNS_11char_traitsIcEENS_9allocatorIcEEEENS_10unique_ptrIN4ezgl6canvasENS_14default_deleteISB_EEEEEEPNS_11__tree_nodeISF_PvEElEEEESN_, symObjAddr: 0x200, symBinAddr: 0x10000A2A0, symSize: 0x30 }
  - { offsetInCU: 0x7C18, offset: 0x1C81A, size: 0x8, addend: 0x0, symName: __ZNSt3__1neB8ue170006ERKNS_20__map_const_iteratorINS_21__tree_const_iteratorINS_12__value_typeINS_12basic_stringIcNS_11char_traitsIcEENS_9allocatorIcEEEENS_10unique_ptrIN4ezgl6canvasENS_14default_deleteISB_EEEEEEPNS_11__tree_nodeISF_PvEElEEEESN_, symObjAddr: 0xBF0, symBinAddr: 0x10000AC80, symSize: 0x30 }
  - { offsetInCU: 0x7C55, offset: 0x1C857, size: 0x8, addend: 0x0, symName: __ZNSt3__1neB8ue170006IPNS_12basic_stringIcNS_11char_traitsIcEENS_9allocatorIcEEEEEEbRKNS_11__wrap_iterIT_EESC_, symObjAddr: 0x1880, symBinAddr: 0x10000B8F0, symSize: 0x30 }
  - { offsetInCU: 0x7C98, offset: 0x1C89A, size: 0x8, addend: 0x0, symName: __ZNSt3__1eqB8ue170006IcNS_11char_traitsIcEENS_9allocatorIcEEEEbPKT_RKNS_12basic_stringIS5_T0_T1_EE, symObjAddr: 0x1CE0, symBinAddr: 0x10000BD20, symSize: 0x90 }
  - { offsetInCU: 0x7CFF, offset: 0x1C901, size: 0x8, addend: 0x0, symName: __ZNSt3__1eqB8ue170006INS_9allocatorIcEEEEbRKNS_12basic_stringIcNS_11char_traitsIcEET_EES9_, symObjAddr: 0x26B0, symBinAddr: 0x10000C610, symSize: 0x110 }
  - { offsetInCU: 0x7D72, offset: 0x1C974, size: 0x8, addend: 0x0, symName: __ZNSt3__1eqB8ue170006IPNS_12basic_stringIcNS_11char_traitsIcEENS_9allocatorIcEEEEEEbRKNS_11__wrap_iterIT_EESC_, symObjAddr: 0x2C20, symBinAddr: 0x10000CB80, symSize: 0x40 }
  - { offsetInCU: 0x7DE8, offset: 0x1C9EA, size: 0x8, addend: 0x0, symName: __ZNSt3__1neB8ue170006ERKNS_15__tree_iteratorINS_12__value_typeINS_12basic_stringIcNS_11char_traitsIcEENS_9allocatorIcEEEENS_10unique_ptrIN4ezgl6canvasENS_14default_deleteISA_EEEEEEPNS_11__tree_nodeISE_PvEElEESL_, symObjAddr: 0x30B0, symBinAddr: 0x10000CD60, symSize: 0x30 }
  - { offsetInCU: 0x7E25, offset: 0x1CA27, size: 0x8, addend: 0x0, symName: __ZNSt3__1eqB8ue170006ERKNS_15__tree_iteratorINS_12__value_typeINS_12basic_stringIcNS_11char_traitsIcEENS_9allocatorIcEEEENS_10unique_ptrIN4ezgl6canvasENS_14default_deleteISA_EEEEEEPNS_11__tree_nodeISE_PvEElEESL_, symObjAddr: 0x30E0, symBinAddr: 0x10000CD90, symSize: 0x30 }
  - { offsetInCU: 0x7E62, offset: 0x1CA64, size: 0x8, addend: 0x0, symName: __ZNSt3__116__tree_next_iterB8ue170006IPNS_15__tree_end_nodeIPNS_16__tree_node_baseIPvEEEES5_EET_T0_, symObjAddr: 0x3140, symBinAddr: 0x10000CDF0, symSize: 0x90 }
  - { offsetInCU: 0x7EA0, offset: 0x1CAA2, size: 0x8, addend: 0x0, symName: __ZNSt3__110__tree_minB8ue170006IPNS_16__tree_node_baseIPvEEEET_S5_, symObjAddr: 0x31D0, symBinAddr: 0x10000CE80, symSize: 0x30 }
  - { offsetInCU: 0x7ED5, offset: 0x1CAD7, size: 0x8, addend: 0x0, symName: __ZNSt3__120__tree_is_left_childB8ue170006IPNS_16__tree_node_baseIPvEEEEbT_, symObjAddr: 0x3200, symBinAddr: 0x10000CEB0, symSize: 0x30 }
  - { offsetInCU: 0x7F3D, offset: 0x1CB3F, size: 0x8, addend: 0x0, symName: __ZNSt3__1neB8ue170006ERKNS_21__tree_const_iteratorINS_12__value_typeINS_12basic_stringIcNS_11char_traitsIcEENS_9allocatorIcEEEENS_10unique_ptrIN4ezgl6canvasENS_14default_deleteISA_EEEEEEPNS_11__tree_nodeISE_PvEElEESL_, symObjAddr: 0x3AA0, symBinAddr: 0x10000D6E0, symSize: 0x30 }
  - { offsetInCU: 0x7F7A, offset: 0x1CB7C, size: 0x8, addend: 0x0, symName: __ZNSt3__1ltB8ue170006IcNS_11char_traitsIcEENS_9allocatorIcEEEEbRKNS_12basic_stringIT_T0_T1_EESB_, symObjAddr: 0x3C40, symBinAddr: 0x10000D880, symSize: 0x30 }
  - { offsetInCU: 0x7FD2, offset: 0x1CBD4, size: 0x8, addend: 0x0, symName: __ZNSt3__1eqB8ue170006ERKNS_21__tree_const_iteratorINS_12__value_typeINS_12basic_stringIcNS_11char_traitsIcEENS_9allocatorIcEEEENS_10unique_ptrIN4ezgl6canvasENS_14default_deleteISA_EEEEEEPNS_11__tree_nodeISE_PvEElEESL_, symObjAddr: 0x4030, symBinAddr: 0x10000DB20, symSize: 0x30 }
  - { offsetInCU: 0x80B7, offset: 0x1CCB9, size: 0x8, addend: 0x0, symName: __ZNSt3__127__tree_balance_after_insertB8ue170006IPNS_16__tree_node_baseIPvEEEEvT_S5_, symObjAddr: 0x4F10, symBinAddr: 0x10000E980, symSize: 0x240 }
  - { offsetInCU: 0x8133, offset: 0x1CD35, size: 0x8, addend: 0x0, symName: __ZNSt3__118__tree_left_rotateB8ue170006IPNS_16__tree_node_baseIPvEEEEvT_, symObjAddr: 0x5170, symBinAddr: 0x10000EBE0, symSize: 0xD0 }
  - { offsetInCU: 0x8175, offset: 0x1CD77, size: 0x8, addend: 0x0, symName: __ZNSt3__119__tree_right_rotateB8ue170006IPNS_16__tree_node_baseIPvEEEEvT_, symObjAddr: 0x5240, symBinAddr: 0x10000ECB0, symSize: 0xC0 }
  - { offsetInCU: 0x81EA, offset: 0x1CDEC, size: 0x8, addend: 0x0, symName: __ZNSt3__130__uninitialized_allocator_copyB8ue170006INS_9allocatorINS_12basic_stringIcNS_11char_traitsIcEENS1_IcEEEEEEPS6_S8_S8_EET2_RT_T0_T1_S9_, symObjAddr: 0x5E70, symBinAddr: 0x10000F210, symSize: 0x80 }
  - { offsetInCU: 0x8287, offset: 0x1CE89, size: 0x8, addend: 0x0, symName: __ZNSt3__114__unwrap_rangeB8ue170006IPNS_12basic_stringIcNS_11char_traitsIcEENS_9allocatorIcEEEES7_EENS_4pairIT0_S9_EET_SB_, symObjAddr: 0x5F50, symBinAddr: 0x10000F290, symSize: 0x50 }
  - { offsetInCU: 0x82D3, offset: 0x1CED5, size: 0x8, addend: 0x0, symName: __ZNSt3__135__uninitialized_allocator_copy_implB8ue170006INS_9allocatorINS_12basic_stringIcNS_11char_traitsIcEENS1_IcEEEEEEPS6_S8_S8_EET2_RT_T0_T1_S9_, symObjAddr: 0x5FA0, symBinAddr: 0x10000F2E0, symSize: 0x100 }
  - { offsetInCU: 0x8371, offset: 0x1CF73, size: 0x8, addend: 0x0, symName: __ZNSt3__19make_pairB8ue170006IPNS_12basic_stringIcNS_11char_traitsIcEENS_9allocatorIcEEEES7_EENS_4pairINS_18__unwrap_ref_decayIT_E4typeENS9_IT0_E4typeEEEOSA_OSD_, symObjAddr: 0x6100, symBinAddr: 0x10000F3E0, symSize: 0x30 }
  - { offsetInCU: 0xB015, offset: 0x1FC17, size: 0x8, addend: 0x0, symName: __ZN4ezgl11application7startupEP15_GtkApplicationPv, symObjAddr: 0x0, symBinAddr: 0x10000A0A0, symSize: 0x180 }
  - { offsetInCU: 0xB0EC, offset: 0x1FCEE, size: 0x8, addend: 0x0, symName: __ZNKSt3__112basic_stringIcNS_11char_traitsIcEENS_9allocatorIcEEE5c_strB8ue170006Ev, symObjAddr: 0x180, symBinAddr: 0x10000A220, symSize: 0x20 }
  - { offsetInCU: 0xB112, offset: 0x1FD14, size: 0x8, addend: 0x0, symName: __ZNSt3__13mapINS_12basic_stringIcNS_11char_traitsIcEENS_9allocatorIcEEEENS_10unique_ptrIN4ezgl6canvasENS_14default_deleteIS9_EEEENS_4lessIS6_EENS4_INS_4pairIKS6_SC_EEEEE5beginB8ue170006Ev, symObjAddr: 0x1A0, symBinAddr: 0x10000A240, symSize: 0x30 }
  - { offsetInCU: 0xB138, offset: 0x1FD3A, size: 0x8, addend: 0x0, symName: __ZNSt3__13mapINS_12basic_stringIcNS_11char_traitsIcEENS_9allocatorIcEEEENS_10unique_ptrIN4ezgl6canvasENS_14default_deleteIS9_EEEENS_4lessIS6_EENS4_INS_4pairIKS6_SC_EEEEE3endB8ue170006Ev, symObjAddr: 0x1D0, symBinAddr: 0x10000A270, symSize: 0x30 }
  - { offsetInCU: 0xB15E, offset: 0x1FD60, size: 0x8, addend: 0x0, symName: __ZNKSt3__114__map_iteratorINS_15__tree_iteratorINS_12__value_typeINS_12basic_stringIcNS_11char_traitsIcEENS_9allocatorIcEEEENS_10unique_ptrIN4ezgl6canvasENS_14default_deleteISB_EEEEEEPNS_11__tree_nodeISF_PvEElEEEdeB8ue170006Ev, symObjAddr: 0x230, symBinAddr: 0x10000A2D0, symSize: 0x30 }
  - { offsetInCU: 0xB184, offset: 0x1FD86, size: 0x8, addend: 0x0, symName: __ZNK4ezgl11application10get_objectEPKc, symObjAddr: 0x260, symBinAddr: 0x10000A300, symSize: 0x70 }
  - { offsetInCU: 0xB1C8, offset: 0x1FDCA, size: 0x8, addend: 0x0, symName: __ZNKSt3__110unique_ptrIN4ezgl6canvasENS_14default_deleteIS2_EEEptB8ue170006Ev, symObjAddr: 0x2D0, symBinAddr: 0x10000A370, symSize: 0x20 }
  - { offsetInCU: 0xB1EE, offset: 0x1FDF0, size: 0x8, addend: 0x0, symName: __ZNK4ezgl6canvas2idEv, symObjAddr: 0x2F0, symBinAddr: 0x10000A390, symSize: 0x20 }
  - { offsetInCU: 0xB214, offset: 0x1FE16, size: 0x8, addend: 0x0, symName: __ZNSt3__114__map_iteratorINS_15__tree_iteratorINS_12__value_typeINS_12basic_stringIcNS_11char_traitsIcEENS_9allocatorIcEEEENS_10unique_ptrIN4ezgl6canvasENS_14default_deleteISB_EEEEEEPNS_11__tree_nodeISF_PvEElEEEppB8ue170006Ev, symObjAddr: 0x310, symBinAddr: 0x10000A3B0, symSize: 0x30 }
  - { offsetInCU: 0xB23A, offset: 0x1FE3C, size: 0x8, addend: 0x0, symName: __ZN4ezgl11application8activateEP15_GtkApplicationPv, symObjAddr: 0x340, symBinAddr: 0x10000A3E0, symSize: 0x120 }
  - { offsetInCU: 0xB286, offset: 0x1FE88, size: 0x8, addend: 0x0, symName: __ZN4ezgl11application33register_default_events_callbacksEPS0_, symObjAddr: 0x460, symBinAddr: 0x10000A500, symSize: 0x1D0 }
  - { offsetInCU: 0xB2E5, offset: 0x1FEE7, size: 0x8, addend: 0x0, symName: __ZN4ezgl11application34register_default_buttons_callbacksEPS0_, symObjAddr: 0x630, symBinAddr: 0x10000A6D0, symSize: 0x1D0 }
  - { offsetInCU: 0xB385, offset: 0x1FF87, size: 0x8, addend: 0x0, symName: __ZN4ezgl11applicationC2ENS0_8settingsE, symObjAddr: 0x800, symBinAddr: 0x10000A8A0, symSize: 0x1F0 }
  - { offsetInCU: 0xB3C0, offset: 0x1FFC2, size: 0x8, addend: 0x0, symName: __ZNSt3__13mapINS_12basic_stringIcNS_11char_traitsIcEENS_9allocatorIcEEEENS_10unique_ptrIN4ezgl6canvasENS_14default_deleteIS9_EEEENS_4lessIS6_EENS4_INS_4pairIKS6_SC_EEEEEC1B8ue170006Ev, symObjAddr: 0x9F0, symBinAddr: 0x10000AA90, symSize: 0x20 }
  - { offsetInCU: 0xB3EA, offset: 0x1FFEC, size: 0x8, addend: 0x0, symName: __ZNSt3__13mapINS_12basic_stringIcNS_11char_traitsIcEENS_9allocatorIcEEEENS_10unique_ptrIN4ezgl6canvasENS_14default_deleteIS9_EEEENS_4lessIS6_EENS4_INS_4pairIKS6_SC_EEEEED1B8ue170006Ev, symObjAddr: 0xA10, symBinAddr: 0x10000AAB0, symSize: 0x20 }
  - { offsetInCU: 0xB414, offset: 0x20016, size: 0x8, addend: 0x0, symName: __ZN4ezgl11applicationC1ENS0_8settingsE, symObjAddr: 0xA30, symBinAddr: 0x10000AAD0, symSize: 0x20 }
  - { offsetInCU: 0xB44F, offset: 0x20051, size: 0x8, addend: 0x0, symName: __ZN4ezgl11applicationD2Ev, symObjAddr: 0xA50, symBinAddr: 0x10000AAF0, symSize: 0x80 }
  - { offsetInCU: 0xB47B, offset: 0x2007D, size: 0x8, addend: 0x0, symName: __ZN4ezgl11applicationD1Ev, symObjAddr: 0xAE0, symBinAddr: 0x10000AB70, symSize: 0x20 }
  - { offsetInCU: 0xB4A7, offset: 0x200A9, size: 0x8, addend: 0x0, symName: __ZNK4ezgl11application10get_canvasERKNSt3__112basic_stringIcNS1_11char_traitsIcEENS1_9allocatorIcEEEE, symObjAddr: 0xB00, symBinAddr: 0x10000AB90, symSize: 0xB0 }
  - { offsetInCU: 0xB4EB, offset: 0x200ED, size: 0x8, addend: 0x0, symName: __ZNKSt3__13mapINS_12basic_stringIcNS_11char_traitsIcEENS_9allocatorIcEEEENS_10unique_ptrIN4ezgl6canvasENS_14default_deleteIS9_EEEENS_4lessIS6_EENS4_INS_4pairIKS6_SC_EEEEE4findB8ue170006ERSG_, symObjAddr: 0xBB0, symBinAddr: 0x10000AC40, symSize: 0x40 }
  - { offsetInCU: 0xB520, offset: 0x20122, size: 0x8, addend: 0x0, symName: __ZNKSt3__13mapINS_12basic_stringIcNS_11char_traitsIcEENS_9allocatorIcEEEENS_10unique_ptrIN4ezgl6canvasENS_14default_deleteIS9_EEEENS_4lessIS6_EENS4_INS_4pairIKS6_SC_EEEEE3endB8ue170006Ev, symObjAddr: 0xC20, symBinAddr: 0x10000ACB0, symSize: 0x30 }
  - { offsetInCU: 0xB546, offset: 0x20148, size: 0x8, addend: 0x0, symName: __ZNKSt3__120__map_const_iteratorINS_21__tree_const_iteratorINS_12__value_typeINS_12basic_stringIcNS_11char_traitsIcEENS_9allocatorIcEEEENS_10unique_ptrIN4ezgl6canvasENS_14default_deleteISB_EEEEEEPNS_11__tree_nodeISF_PvEElEEEptB8ue170006Ev, symObjAddr: 0xC50, symBinAddr: 0x10000ACE0, symSize: 0x30 }
  - { offsetInCU: 0xB56C, offset: 0x2016E, size: 0x8, addend: 0x0, symName: __ZNKSt3__110unique_ptrIN4ezgl6canvasENS_14default_deleteIS2_EEE3getB8ue170006Ev, symObjAddr: 0xC80, symBinAddr: 0x10000AD10, symSize: 0x20 }
  - { offsetInCU: 0xB592, offset: 0x20194, size: 0x8, addend: 0x0, symName: __ZN4ezgl11application10add_canvasERKNSt3__112basic_stringIcNS1_11char_traitsIcEENS1_9allocatorIcEEEEPFvPNS_8rendererEENS_9rectangleENS_5colorE, symObjAddr: 0xCA0, symBinAddr: 0x10000AD30, symSize: 0x250 }
  - { offsetInCU: 0xB60F, offset: 0x20211, size: 0x8, addend: 0x0, symName: __ZNSt3__110unique_ptrIN4ezgl6canvasENS_14default_deleteIS2_EEEC1B8ue170006ILb1EvEEPS2_, symObjAddr: 0xEF0, symBinAddr: 0x10000AF80, symSize: 0x30 }
  - { offsetInCU: 0xB652, offset: 0x20254, size: 0x8, addend: 0x0, symName: __ZNSt3__13mapINS_12basic_stringIcNS_11char_traitsIcEENS_9allocatorIcEEEENS_10unique_ptrIN4ezgl6canvasENS_14default_deleteIS9_EEEENS_4lessIS6_EENS4_INS_4pairIKS6_SC_EEEEE7emplaceB8ue170006IJRSG_SC_EEENSF_INS_14__map_iteratorINS_15__tree_iteratorINS_12__value_typeIS6_SC_EEPNS_11__tree_nodeISP_PvEElEEEEbEEDpOT_, symObjAddr: 0xF20, symBinAddr: 0x10000AFB0, symSize: 0x50 }
  - { offsetInCU: 0xB6A6, offset: 0x202A8, size: 0x8, addend: 0x0, symName: __ZNKSt3__114__map_iteratorINS_15__tree_iteratorINS_12__value_typeINS_12basic_stringIcNS_11char_traitsIcEENS_9allocatorIcEEEENS_10unique_ptrIN4ezgl6canvasENS_14default_deleteISB_EEEEEEPNS_11__tree_nodeISF_PvEElEEEptB8ue170006Ev, symObjAddr: 0xF70, symBinAddr: 0x10000B000, symSize: 0x30 }
  - { offsetInCU: 0xB6CC, offset: 0x202CE, size: 0x8, addend: 0x0, symName: __ZNSt3__110unique_ptrIN4ezgl6canvasENS_14default_deleteIS2_EEED1B8ue170006Ev, symObjAddr: 0xFA0, symBinAddr: 0x10000B030, symSize: 0x20 }
  - { offsetInCU: 0xB6F6, offset: 0x202F8, size: 0x8, addend: 0x0, symName: __ZN4ezgl11application3runEPFvPS0_bEPFvS1_P15_GdkEventButtonddES7_PFvS1_P12_GdkEventKeyPcE, symObjAddr: 0xFC0, symBinAddr: 0x10000B050, symSize: 0x230 }
  - { offsetInCU: 0xB756, offset: 0x20358, size: 0x8, addend: 0x0, symName: __ZN4ezgl11application4quitEv, symObjAddr: 0x11F0, symBinAddr: 0x10000B280, symSize: 0x60 }
  - { offsetInCU: 0xB77E, offset: 0x20380, size: 0x8, addend: 0x0, symName: __ZNK4ezgl11application18get_main_window_idEv, symObjAddr: 0x1250, symBinAddr: 0x10000B2E0, symSize: 0x30 }
  - { offsetInCU: 0xB7A4, offset: 0x203A6, size: 0x8, addend: 0x0, symName: __ZNK4ezgl11application18get_main_canvas_idEv, symObjAddr: 0x1280, symBinAddr: 0x10000B310, symSize: 0x30 }
  - { offsetInCU: 0xB7CA, offset: 0x203CC, size: 0x8, addend: 0x0, symName: __ZN4ezgl11application14update_messageERKNSt3__112basic_stringIcNS1_11char_traitsIcEENS1_9allocatorIcEEEE, symObjAddr: 0x12B0, symBinAddr: 0x10000B340, symSize: 0x60 }
  - { offsetInCU: 0xB811, offset: 0x20413, size: 0x8, addend: 0x0, symName: __ZN4ezgl11application13create_buttonEPKciiiiPFvP10_GtkWidgetPS0_E, symObjAddr: 0x1310, symBinAddr: 0x10000B3A0, symSize: 0xD0 }
  - { offsetInCU: 0xB8B2, offset: 0x204B4, size: 0x8, addend: 0x0, symName: __ZN4ezgl11application13create_buttonEPKciPFvP10_GtkWidgetPS0_E, symObjAddr: 0x13E0, symBinAddr: 0x10000B470, symSize: 0x70 }
  - { offsetInCU: 0xB917, offset: 0x20519, size: 0x8, addend: 0x0, symName: __ZN4ezgl11application12create_labelEiPKc, symObjAddr: 0x1450, symBinAddr: 0x10000B4E0, symSize: 0x60 }
  - { offsetInCU: 0xB96D, offset: 0x2056F, size: 0x8, addend: 0x0, symName: __ZN4ezgl11application12create_labelEiiiiPKc, symObjAddr: 0x14B0, symBinAddr: 0x10000B540, symSize: 0x80 }
  - { offsetInCU: 0xB9FF, offset: 0x20601, size: 0x8, addend: 0x0, symName: __ZN4ezgl11application21create_combo_box_textEPKciPFvP16_GtkComboBoxTextPS0_ENSt3__16vectorINS8_12basic_stringIcNS8_11char_traitsIcEENS8_9allocatorIcEEEENSD_ISF_EEEE, symObjAddr: 0x1530, symBinAddr: 0x10000B5C0, symSize: 0xE0 }
  - { offsetInCU: 0xBA74, offset: 0x20676, size: 0x8, addend: 0x0, symName: __ZN4ezgl11application21create_combo_box_textEPKciiiiPFvP16_GtkComboBoxTextPS0_ENSt3__16vectorINS8_12basic_stringIcNS8_11char_traitsIcEENS8_9allocatorIcEEEENSD_ISF_EEEE, symObjAddr: 0x1610, symBinAddr: 0x10000B6A0, symSize: 0x1C0 }
  - { offsetInCU: 0xBB69, offset: 0x2076B, size: 0x8, addend: 0x0, symName: __ZNSt3__16vectorINS_12basic_stringIcNS_11char_traitsIcEENS_9allocatorIcEEEENS4_IS6_EEEC1ERKS8_, symObjAddr: 0x17D0, symBinAddr: 0x10000B860, symSize: 0x30 }
  - { offsetInCU: 0xBBA4, offset: 0x207A6, size: 0x8, addend: 0x0, symName: __ZNSt3__16vectorINS_12basic_stringIcNS_11char_traitsIcEENS_9allocatorIcEEEENS4_IS6_EEE5beginB8ue170006Ev, symObjAddr: 0x1820, symBinAddr: 0x10000B890, symSize: 0x30 }
  - { offsetInCU: 0xBBCC, offset: 0x207CE, size: 0x8, addend: 0x0, symName: __ZNSt3__16vectorINS_12basic_stringIcNS_11char_traitsIcEENS_9allocatorIcEEEENS4_IS6_EEE3endB8ue170006Ev, symObjAddr: 0x1850, symBinAddr: 0x10000B8C0, symSize: 0x30 }
  - { offsetInCU: 0xBBF4, offset: 0x207F6, size: 0x8, addend: 0x0, symName: __ZNKSt3__111__wrap_iterIPNS_12basic_stringIcNS_11char_traitsIcEENS_9allocatorIcEEEEEdeB8ue170006Ev, symObjAddr: 0x18B0, symBinAddr: 0x10000B920, symSize: 0x20 }
  - { offsetInCU: 0xBC1A, offset: 0x2081C, size: 0x8, addend: 0x0, symName: __ZNSt3__111__wrap_iterIPNS_12basic_stringIcNS_11char_traitsIcEENS_9allocatorIcEEEEEppB8ue170006Ev, symObjAddr: 0x18D0, symBinAddr: 0x10000B940, symSize: 0x20 }
  - { offsetInCU: 0xBC40, offset: 0x20842, size: 0x8, addend: 0x0, symName: __ZN4ezgl11application29change_combo_box_text_optionsEPKcNSt3__16vectorINS3_12basic_stringIcNS3_11char_traitsIcEENS3_9allocatorIcEEEENS8_ISA_EEEE, symObjAddr: 0x18F0, symBinAddr: 0x10000B960, symSize: 0x3C0 }
  - { offsetInCU: 0xBD82, offset: 0x20984, size: 0x8, addend: 0x0, symName: __ZN4ezgl11application20create_dialog_windowEPFvP10_GtkDialogiPS0_EPKcS7_, symObjAddr: 0x1E50, symBinAddr: 0x10000BDB0, symSize: 0x130 }
  - { offsetInCU: 0xBE14, offset: 0x20A16, size: 0x8, addend: 0x0, symName: __ZN4ezgl11application20create_popup_messageEPKcS2_, symObjAddr: 0x1F80, symBinAddr: 0x10000BEE0, symSize: 0x40 }
  - { offsetInCU: 0xBE5B, offset: 0x20A5D, size: 0x8, addend: 0x0, symName: __ZN4ezgl11application34create_popup_message_with_callbackEPFvP10_GtkDialogiPS0_EPKcS7_, symObjAddr: 0x1FC0, symBinAddr: 0x10000BF20, symSize: 0x120 }
  - { offsetInCU: 0xBEED, offset: 0x20AEF, size: 0x8, addend: 0x0, symName: __ZN4ezgl11application14destroy_widgetEPKc, symObjAddr: 0x2120, symBinAddr: 0x10000C080, symSize: 0x50 }
  - { offsetInCU: 0xBF34, offset: 0x20B36, size: 0x8, addend: 0x0, symName: __ZN4ezgl11application11find_widgetEPKc, symObjAddr: 0x2170, symBinAddr: 0x10000C0D0, symSize: 0x240 }
  - { offsetInCU: 0xBFCE, offset: 0x20BD0, size: 0x8, addend: 0x0, symName: __ZN4ezgl11application14destroy_buttonEPKc, symObjAddr: 0x23B0, symBinAddr: 0x10000C310, symSize: 0x300 }
  - { offsetInCU: 0xC0D3, offset: 0x20CD5, size: 0x8, addend: 0x0, symName: __ZN4ezgl11application18change_button_textEPKcS2_, symObjAddr: 0x27C0, symBinAddr: 0x10000C720, symSize: 0x2C0 }
  - { offsetInCU: 0xC1EF, offset: 0x20DF1, size: 0x8, addend: 0x0, symName: __ZN4ezgl11application31change_canvas_world_coordinatesERKNSt3__112basic_stringIcNS1_11char_traitsIcEENS1_9allocatorIcEEEENS_9rectangleE, symObjAddr: 0x2A80, symBinAddr: 0x10000C9E0, symSize: 0xA0 }
  - { offsetInCU: 0xC245, offset: 0x20E47, size: 0x8, addend: 0x0, symName: __ZN4ezgl6canvas10get_cameraEv, symObjAddr: 0x2B20, symBinAddr: 0x10000CA80, symSize: 0x20 }
  - { offsetInCU: 0xC26B, offset: 0x20E6D, size: 0x8, addend: 0x0, symName: __ZN4ezgl11application15refresh_drawingEv, symObjAddr: 0x2B40, symBinAddr: 0x10000CAA0, symSize: 0x30 }
  - { offsetInCU: 0xC2A3, offset: 0x20EA5, size: 0x8, addend: 0x0, symName: __ZN4ezgl11application13flush_drawingEv, symObjAddr: 0x2B70, symBinAddr: 0x10000CAD0, symSize: 0x60 }
  - { offsetInCU: 0xC2DB, offset: 0x20EDD, size: 0x8, addend: 0x0, symName: __ZN4ezgl11application12get_rendererEv, symObjAddr: 0x2BD0, symBinAddr: 0x10000CB30, symSize: 0x30 }
  - { offsetInCU: 0xC313, offset: 0x20F15, size: 0x8, addend: 0x0, symName: __ZNKSt3__111__wrap_iterIPNS_12basic_stringIcNS_11char_traitsIcEENS_9allocatorIcEEEEE4baseB8ue170006Ev, symObjAddr: 0x2C60, symBinAddr: 0x10000CBC0, symSize: 0x20 }
  - { offsetInCU: 0xC339, offset: 0x20F3B, size: 0x8, addend: 0x0, symName: __ZNSt3__16__treeINS_12__value_typeINS_12basic_stringIcNS_11char_traitsIcEENS_9allocatorIcEEEENS_10unique_ptrIN4ezgl6canvasENS_14default_deleteISA_EEEEEENS_19__map_value_compareIS7_SE_NS_4lessIS7_EELb1EEENS5_ISE_EEE5beginB8ue170006Ev, symObjAddr: 0x2F30, symBinAddr: 0x10000CBE0, symSize: 0x30 }
  - { offsetInCU: 0xC35F, offset: 0x20F61, size: 0x8, addend: 0x0, symName: __ZNSt3__114__map_iteratorINS_15__tree_iteratorINS_12__value_typeINS_12basic_stringIcNS_11char_traitsIcEENS_9allocatorIcEEEENS_10unique_ptrIN4ezgl6canvasENS_14default_deleteISB_EEEEEEPNS_11__tree_nodeISF_PvEElEEEC1B8ue170006ESK_, symObjAddr: 0x2F60, symBinAddr: 0x10000CC10, symSize: 0x30 }
  - { offsetInCU: 0xC398, offset: 0x20F9A, size: 0x8, addend: 0x0, symName: __ZNSt3__16__treeINS_12__value_typeINS_12basic_stringIcNS_11char_traitsIcEENS_9allocatorIcEEEENS_10unique_ptrIN4ezgl6canvasENS_14default_deleteISA_EEEEEENS_19__map_value_compareIS7_SE_NS_4lessIS7_EELb1EEENS5_ISE_EEE12__begin_nodeB8ue170006Ev, symObjAddr: 0x2F90, symBinAddr: 0x10000CC40, symSize: 0x10 }
  - { offsetInCU: 0xC3BE, offset: 0x20FC0, size: 0x8, addend: 0x0, symName: __ZNSt3__115__tree_iteratorINS_12__value_typeINS_12basic_stringIcNS_11char_traitsIcEENS_9allocatorIcEEEENS_10unique_ptrIN4ezgl6canvasENS_14default_deleteISA_EEEEEEPNS_11__tree_nodeISE_PvEElEC1B8ue170006EPNS_15__tree_end_nodeIPNS_16__tree_node_baseISG_EEEE, symObjAddr: 0x2FA0, symBinAddr: 0x10000CC50, symSize: 0x30 }
  - { offsetInCU: 0xC3F7, offset: 0x20FF9, size: 0x8, addend: 0x0, symName: __ZNSt3__115__tree_iteratorINS_12__value_typeINS_12basic_stringIcNS_11char_traitsIcEENS_9allocatorIcEEEENS_10unique_ptrIN4ezgl6canvasENS_14default_deleteISA_EEEEEEPNS_11__tree_nodeISE_PvEElEC2B8ue170006EPNS_15__tree_end_nodeIPNS_16__tree_node_baseISG_EEEE, symObjAddr: 0x2FD0, symBinAddr: 0x10000CC80, symSize: 0x20 }
  - { offsetInCU: 0xC430, offset: 0x21032, size: 0x8, addend: 0x0, symName: __ZNSt3__114__map_iteratorINS_15__tree_iteratorINS_12__value_typeINS_12basic_stringIcNS_11char_traitsIcEENS_9allocatorIcEEEENS_10unique_ptrIN4ezgl6canvasENS_14default_deleteISB_EEEEEEPNS_11__tree_nodeISF_PvEElEEEC2B8ue170006ESK_, symObjAddr: 0x2FF0, symBinAddr: 0x10000CCA0, symSize: 0x20 }
  - { offsetInCU: 0xC469, offset: 0x2106B, size: 0x8, addend: 0x0, symName: __ZNSt3__16__treeINS_12__value_typeINS_12basic_stringIcNS_11char_traitsIcEENS_9allocatorIcEEEENS_10unique_ptrIN4ezgl6canvasENS_14default_deleteISA_EEEEEENS_19__map_value_compareIS7_SE_NS_4lessIS7_EELb1EEENS5_ISE_EEE3endB8ue170006Ev, symObjAddr: 0x3010, symBinAddr: 0x10000CCC0, symSize: 0x30 }
  - { offsetInCU: 0xC48F, offset: 0x21091, size: 0x8, addend: 0x0, symName: __ZNSt3__16__treeINS_12__value_typeINS_12basic_stringIcNS_11char_traitsIcEENS_9allocatorIcEEEENS_10unique_ptrIN4ezgl6canvasENS_14default_deleteISA_EEEEEENS_19__map_value_compareIS7_SE_NS_4lessIS7_EELb1EEENS5_ISE_EEE10__end_nodeB8ue170006Ev, symObjAddr: 0x3040, symBinAddr: 0x10000CCF0, symSize: 0x30 }
  - { offsetInCU: 0xC4B5, offset: 0x210B7, size: 0x8, addend: 0x0, symName: __ZNSt3__114pointer_traitsIPNS_15__tree_end_nodeIPNS_16__tree_node_baseIPvEEEEE10pointer_toB8ue170006ERS6_, symObjAddr: 0x3070, symBinAddr: 0x10000CD20, symSize: 0x10 }
  - { offsetInCU: 0xC4D8, offset: 0x210DA, size: 0x8, addend: 0x0, symName: __ZNSt3__117__compressed_pairINS_15__tree_end_nodeIPNS_16__tree_node_baseIPvEEEENS_9allocatorINS_11__tree_nodeINS_12__value_typeINS_12basic_stringIcNS_11char_traitsIcEENS7_IcEEEENS_10unique_ptrIN4ezgl6canvasENS_14default_deleteISH_EEEEEES3_EEEEE5firstB8ue170006Ev, symObjAddr: 0x3080, symBinAddr: 0x10000CD30, symSize: 0x20 }
  - { offsetInCU: 0xC4FE, offset: 0x21100, size: 0x8, addend: 0x0, symName: __ZNSt3__122__compressed_pair_elemINS_15__tree_end_nodeIPNS_16__tree_node_baseIPvEEEELi0ELb0EE5__getB8ue170006Ev, symObjAddr: 0x30A0, symBinAddr: 0x10000CD50, symSize: 0x10 }
  - { offsetInCU: 0xC524, offset: 0x21126, size: 0x8, addend: 0x0, symName: __ZNSt3__115__tree_iteratorINS_12__value_typeINS_12basic_stringIcNS_11char_traitsIcEENS_9allocatorIcEEEENS_10unique_ptrIN4ezgl6canvasENS_14default_deleteISA_EEEEEEPNS_11__tree_nodeISE_PvEElEppB8ue170006Ev, symObjAddr: 0x3110, symBinAddr: 0x10000CDC0, symSize: 0x30 }
  - { offsetInCU: 0xC54A, offset: 0x2114C, size: 0x8, addend: 0x0, symName: __ZNKSt3__116__tree_node_baseIPvE15__parent_unsafeB8ue170006Ev, symObjAddr: 0x3230, symBinAddr: 0x10000CEE0, symSize: 0x20 }
  - { offsetInCU: 0xC570, offset: 0x21172, size: 0x8, addend: 0x0, symName: __ZNKSt3__115__tree_iteratorINS_12__value_typeINS_12basic_stringIcNS_11char_traitsIcEENS_9allocatorIcEEEENS_10unique_ptrIN4ezgl6canvasENS_14default_deleteISA_EEEEEEPNS_11__tree_nodeISE_PvEElEptB8ue170006Ev, symObjAddr: 0x3250, symBinAddr: 0x10000CF00, symSize: 0x30 }
  - { offsetInCU: 0xC596, offset: 0x21198, size: 0x8, addend: 0x0, symName: __ZNSt3__112__value_typeINS_12basic_stringIcNS_11char_traitsIcEENS_9allocatorIcEEEENS_10unique_ptrIN4ezgl6canvasENS_14default_deleteIS9_EEEEE11__get_valueB8ue170006Ev, symObjAddr: 0x3280, symBinAddr: 0x10000CF30, symSize: 0x10 }
  - { offsetInCU: 0xC5BC, offset: 0x211BE, size: 0x8, addend: 0x0, symName: __ZNSt3__114pointer_traitsIPNS_12__value_typeINS_12basic_stringIcNS_11char_traitsIcEENS_9allocatorIcEEEENS_10unique_ptrIN4ezgl6canvasENS_14default_deleteISA_EEEEEEE10pointer_toB8ue170006ERSE_, symObjAddr: 0x3290, symBinAddr: 0x10000CF40, symSize: 0x10 }
  - { offsetInCU: 0xC5DF, offset: 0x211E1, size: 0x8, addend: 0x0, symName: __ZNKSt3__115__tree_iteratorINS_12__value_typeINS_12basic_stringIcNS_11char_traitsIcEENS_9allocatorIcEEEENS_10unique_ptrIN4ezgl6canvasENS_14default_deleteISA_EEEEEEPNS_11__tree_nodeISE_PvEElE8__get_npB8ue170006Ev, symObjAddr: 0x32A0, symBinAddr: 0x10000CF50, symSize: 0x20 }
  - { offsetInCU: 0xC605, offset: 0x21207, size: 0x8, addend: 0x0, symName: __ZNKSt3__117__compressed_pairIPN4ezgl6canvasENS_14default_deleteIS2_EEE5firstB8ue170006Ev, symObjAddr: 0x32C0, symBinAddr: 0x10000CF70, symSize: 0x20 }
  - { offsetInCU: 0xC62B, offset: 0x2122D, size: 0x8, addend: 0x0, symName: __ZNKSt3__122__compressed_pair_elemIPN4ezgl6canvasELi0ELb0EE5__getB8ue170006Ev, symObjAddr: 0x32E0, symBinAddr: 0x10000CF90, symSize: 0x10 }
  - { offsetInCU: 0xC651, offset: 0x21253, size: 0x8, addend: 0x0, symName: __ZNSt3__13mapINS_12basic_stringIcNS_11char_traitsIcEENS_9allocatorIcEEEENS_10unique_ptrIN4ezgl6canvasENS_14default_deleteIS9_EEEENS_4lessIS6_EENS4_INS_4pairIKS6_SC_EEEEEC2B8ue170006Ev, symObjAddr: 0x32F0, symBinAddr: 0x10000CFA0, symSize: 0x30 }
  - { offsetInCU: 0xC67B, offset: 0x2127D, size: 0x8, addend: 0x0, symName: __ZNSt3__119__map_value_compareINS_12basic_stringIcNS_11char_traitsIcEENS_9allocatorIcEEEENS_12__value_typeIS6_NS_10unique_ptrIN4ezgl6canvasENS_14default_deleteISA_EEEEEENS_4lessIS6_EELb1EEC1B8ue170006ESG_, symObjAddr: 0x3320, symBinAddr: 0x10000CFD0, symSize: 0x20 }
  - { offsetInCU: 0xC6B4, offset: 0x212B6, size: 0x8, addend: 0x0, symName: __ZNSt3__16__treeINS_12__value_typeINS_12basic_stringIcNS_11char_traitsIcEENS_9allocatorIcEEEENS_10unique_ptrIN4ezgl6canvasENS_14default_deleteISA_EEEEEENS_19__map_value_compareIS7_SE_NS_4lessIS7_EELb1EEENS5_ISE_EEEC1ERKSI_, symObjAddr: 0x3340, symBinAddr: 0x10000CFF0, symSize: 0x30 }
  - { offsetInCU: 0xC6EF, offset: 0x212F1, size: 0x8, addend: 0x0, symName: __ZNSt3__119__map_value_compareINS_12basic_stringIcNS_11char_traitsIcEENS_9allocatorIcEEEENS_12__value_typeIS6_NS_10unique_ptrIN4ezgl6canvasENS_14default_deleteISA_EEEEEENS_4lessIS6_EELb1EEC2B8ue170006ESG_, symObjAddr: 0x3370, symBinAddr: 0x10000D020, symSize: 0x10 }
  - { offsetInCU: 0xC728, offset: 0x2132A, size: 0x8, addend: 0x0, symName: __ZNSt3__16__treeINS_12__value_typeINS_12basic_stringIcNS_11char_traitsIcEENS_9allocatorIcEEEENS_10unique_ptrIN4ezgl6canvasENS_14default_deleteISA_EEEEEENS_19__map_value_compareIS7_SE_NS_4lessIS7_EELb1EEENS5_ISE_EEEC2ERKSI_, symObjAddr: 0x3380, symBinAddr: 0x10000D030, symSize: 0x80 }
  - { offsetInCU: 0xC763, offset: 0x21365, size: 0x8, addend: 0x0, symName: __ZNSt3__117__compressed_pairINS_15__tree_end_nodeIPNS_16__tree_node_baseIPvEEEENS_9allocatorINS_11__tree_nodeINS_12__value_typeINS_12basic_stringIcNS_11char_traitsIcEENS7_IcEEEENS_10unique_ptrIN4ezgl6canvasENS_14default_deleteISH_EEEEEES3_EEEEEC1B8ue170006ILb1EvEEv, symObjAddr: 0x3400, symBinAddr: 0x10000D0B0, symSize: 0x20 }
  - { offsetInCU: 0xC79E, offset: 0x213A0, size: 0x8, addend: 0x0, symName: __ZNSt3__117__compressed_pairImNS_19__map_value_compareINS_12basic_stringIcNS_11char_traitsIcEENS_9allocatorIcEEEENS_12__value_typeIS7_NS_10unique_ptrIN4ezgl6canvasENS_14default_deleteISB_EEEEEENS_4lessIS7_EELb1EEEEC1B8ue170006IiRKSI_EEOT_OT0_, symObjAddr: 0x3420, symBinAddr: 0x10000D0D0, symSize: 0x30 }
  - { offsetInCU: 0xC7F6, offset: 0x213F8, size: 0x8, addend: 0x0, symName: __ZNSt3__117__compressed_pairINS_15__tree_end_nodeIPNS_16__tree_node_baseIPvEEEENS_9allocatorINS_11__tree_nodeINS_12__value_typeINS_12basic_stringIcNS_11char_traitsIcEENS7_IcEEEENS_10unique_ptrIN4ezgl6canvasENS_14default_deleteISH_EEEEEES3_EEEEEC2B8ue170006ILb1EvEEv, symObjAddr: 0x3450, symBinAddr: 0x10000D100, symSize: 0x30 }
  - { offsetInCU: 0xC82B, offset: 0x2142D, size: 0x8, addend: 0x0, symName: __ZNSt3__122__compressed_pair_elemINS_15__tree_end_nodeIPNS_16__tree_node_baseIPvEEEELi0ELb0EEC2B8ue170006ENS_16__value_init_tagE, symObjAddr: 0x3480, symBinAddr: 0x10000D130, symSize: 0x20 }
  - { offsetInCU: 0xC860, offset: 0x21462, size: 0x8, addend: 0x0, symName: __ZNSt3__122__compressed_pair_elemINS_9allocatorINS_11__tree_nodeINS_12__value_typeINS_12basic_stringIcNS_11char_traitsIcEENS1_IcEEEENS_10unique_ptrIN4ezgl6canvasENS_14default_deleteISB_EEEEEEPvEEEELi1ELb1EEC2B8ue170006ENS_16__value_init_tagE, symObjAddr: 0x34A0, symBinAddr: 0x10000D150, symSize: 0x20 }
  - { offsetInCU: 0xC895, offset: 0x21497, size: 0x8, addend: 0x0, symName: __ZNSt3__115__tree_end_nodeIPNS_16__tree_node_baseIPvEEEC1B8ue170006Ev, symObjAddr: 0x34C0, symBinAddr: 0x10000D170, symSize: 0x20 }
  - { offsetInCU: 0xC8BF, offset: 0x214C1, size: 0x8, addend: 0x0, symName: __ZNSt3__115__tree_end_nodeIPNS_16__tree_node_baseIPvEEEC2B8ue170006Ev, symObjAddr: 0x34E0, symBinAddr: 0x10000D190, symSize: 0x20 }
  - { offsetInCU: 0xC8E9, offset: 0x214EB, size: 0x8, addend: 0x0, symName: __ZNSt3__19allocatorINS_11__tree_nodeINS_12__value_typeINS_12basic_stringIcNS_11char_traitsIcEENS0_IcEEEENS_10unique_ptrIN4ezgl6canvasENS_14default_deleteISA_EEEEEEPvEEEC2B8ue170006Ev, symObjAddr: 0x3500, symBinAddr: 0x10000D1B0, symSize: 0x20 }
  - { offsetInCU: 0xC913, offset: 0x21515, size: 0x8, addend: 0x0, symName: __ZNSt3__116__non_trivial_ifILb1ENS_9allocatorINS_11__tree_nodeINS_12__value_typeINS_12basic_stringIcNS_11char_traitsIcEENS1_IcEEEENS_10unique_ptrIN4ezgl6canvasENS_14default_deleteISB_EEEEEEPvEEEEEC2B8ue170006Ev, symObjAddr: 0x3520, symBinAddr: 0x10000D1D0, symSize: 0x10 }
  - { offsetInCU: 0xC93D, offset: 0x2153F, size: 0x8, addend: 0x0, symName: __ZNSt3__117__compressed_pairImNS_19__map_value_compareINS_12basic_stringIcNS_11char_traitsIcEENS_9allocatorIcEEEENS_12__value_typeIS7_NS_10unique_ptrIN4ezgl6canvasENS_14default_deleteISB_EEEEEENS_4lessIS7_EELb1EEEEC2B8ue170006IiRKSI_EEOT_OT0_, symObjAddr: 0x3530, symBinAddr: 0x10000D1E0, symSize: 0x40 }
  - { offsetInCU: 0xC995, offset: 0x21597, size: 0x8, addend: 0x0, symName: __ZNSt3__122__compressed_pair_elemImLi0ELb0EEC2B8ue170006IivEEOT_, symObjAddr: 0x3570, symBinAddr: 0x10000D220, symSize: 0x20 }
  - { offsetInCU: 0xC9D7, offset: 0x215D9, size: 0x8, addend: 0x0, symName: __ZNSt3__122__compressed_pair_elemINS_19__map_value_compareINS_12basic_stringIcNS_11char_traitsIcEENS_9allocatorIcEEEENS_12__value_typeIS7_NS_10unique_ptrIN4ezgl6canvasENS_14default_deleteISB_EEEEEENS_4lessIS7_EELb1EEELi1ELb1EEC2B8ue170006IRKSI_vEEOT_, symObjAddr: 0x3590, symBinAddr: 0x10000D240, symSize: 0x10 }
  - { offsetInCU: 0xCA19, offset: 0x2161B, size: 0x8, addend: 0x0, symName: __ZNSt3__13mapINS_12basic_stringIcNS_11char_traitsIcEENS_9allocatorIcEEEENS_10unique_ptrIN4ezgl6canvasENS_14default_deleteIS9_EEEENS_4lessIS6_EENS4_INS_4pairIKS6_SC_EEEEED2B8ue170006Ev, symObjAddr: 0x35A0, symBinAddr: 0x10000D250, symSize: 0x20 }
  - { offsetInCU: 0xCA43, offset: 0x21645, size: 0x8, addend: 0x0, symName: __ZNSt3__16__treeINS_12__value_typeINS_12basic_stringIcNS_11char_traitsIcEENS_9allocatorIcEEEENS_10unique_ptrIN4ezgl6canvasENS_14default_deleteISA_EEEEEENS_19__map_value_compareIS7_SE_NS_4lessIS7_EELb1EEENS5_ISE_EEED1Ev, symObjAddr: 0x35C0, symBinAddr: 0x10000D270, symSize: 0x20 }
  - { offsetInCU: 0xCA6F, offset: 0x21671, size: 0x8, addend: 0x0, symName: __ZNSt3__16__treeINS_12__value_typeINS_12basic_stringIcNS_11char_traitsIcEENS_9allocatorIcEEEENS_10unique_ptrIN4ezgl6canvasENS_14default_deleteISA_EEEEEENS_19__map_value_compareIS7_SE_NS_4lessIS7_EELb1EEENS5_ISE_EEED2Ev, symObjAddr: 0x35E0, symBinAddr: 0x10000D290, symSize: 0x30 }
  - { offsetInCU: 0xCA9B, offset: 0x2169D, size: 0x8, addend: 0x0, symName: __ZNSt3__16__treeINS_12__value_typeINS_12basic_stringIcNS_11char_traitsIcEENS_9allocatorIcEEEENS_10unique_ptrIN4ezgl6canvasENS_14default_deleteISA_EEEEEENS_19__map_value_compareIS7_SE_NS_4lessIS7_EELb1EEENS5_ISE_EEE7destroyEPNS_11__tree_nodeISE_PvEE, symObjAddr: 0x3610, symBinAddr: 0x10000D2C0, symSize: 0xB0 }
  - { offsetInCU: 0xCAE7, offset: 0x216E9, size: 0x8, addend: 0x0, symName: __ZNKSt3__16__treeINS_12__value_typeINS_12basic_stringIcNS_11char_traitsIcEENS_9allocatorIcEEEENS_10unique_ptrIN4ezgl6canvasENS_14default_deleteISA_EEEEEENS_19__map_value_compareIS7_SE_NS_4lessIS7_EELb1EEENS5_ISE_EEE6__rootB8ue170006Ev, symObjAddr: 0x36C0, symBinAddr: 0x10000D370, symSize: 0x20 }
  - { offsetInCU: 0xCB0D, offset: 0x2170F, size: 0x8, addend: 0x0, symName: __ZNSt3__16__treeINS_12__value_typeINS_12basic_stringIcNS_11char_traitsIcEENS_9allocatorIcEEEENS_10unique_ptrIN4ezgl6canvasENS_14default_deleteISA_EEEEEENS_19__map_value_compareIS7_SE_NS_4lessIS7_EELb1EEENS5_ISE_EEE12__node_allocB8ue170006Ev, symObjAddr: 0x36E0, symBinAddr: 0x10000D390, symSize: 0x20 }
  - { offsetInCU: 0xCB33, offset: 0x21735, size: 0x8, addend: 0x0, symName: __ZNSt3__116allocator_traitsINS_9allocatorINS_11__tree_nodeINS_12__value_typeINS_12basic_stringIcNS_11char_traitsIcEENS1_IcEEEENS_10unique_ptrIN4ezgl6canvasENS_14default_deleteISB_EEEEEEPvEEEEE7destroyB8ue170006INS_4pairIKS8_SE_EEvvEEvRSI_PT_, symObjAddr: 0x3700, symBinAddr: 0x10000D3B0, symSize: 0x20 }
  - { offsetInCU: 0xCB6D, offset: 0x2176F, size: 0x8, addend: 0x0, symName: __ZNSt3__122__tree_key_value_typesINS_12__value_typeINS_12basic_stringIcNS_11char_traitsIcEENS_9allocatorIcEEEENS_10unique_ptrIN4ezgl6canvasENS_14default_deleteISA_EEEEEEE9__get_ptrB8ue170006ERSE_, symObjAddr: 0x3720, symBinAddr: 0x10000D3D0, symSize: 0x20 }
  - { offsetInCU: 0xCB91, offset: 0x21793, size: 0x8, addend: 0x0, symName: __ZNSt3__116allocator_traitsINS_9allocatorINS_11__tree_nodeINS_12__value_typeINS_12basic_stringIcNS_11char_traitsIcEENS1_IcEEEENS_10unique_ptrIN4ezgl6canvasENS_14default_deleteISB_EEEEEEPvEEEEE10deallocateB8ue170006ERSI_PSH_m, symObjAddr: 0x3740, symBinAddr: 0x10000D3F0, symSize: 0x30 }
  - { offsetInCU: 0xCBD3, offset: 0x217D5, size: 0x8, addend: 0x0, symName: __ZNSt3__117__compressed_pairINS_15__tree_end_nodeIPNS_16__tree_node_baseIPvEEEENS_9allocatorINS_11__tree_nodeINS_12__value_typeINS_12basic_stringIcNS_11char_traitsIcEENS7_IcEEEENS_10unique_ptrIN4ezgl6canvasENS_14default_deleteISH_EEEEEES3_EEEEE6secondB8ue170006Ev, symObjAddr: 0x3770, symBinAddr: 0x10000D420, symSize: 0x20 }
  - { offsetInCU: 0xCBF9, offset: 0x217FB, size: 0x8, addend: 0x0, symName: __ZNSt3__122__compressed_pair_elemINS_9allocatorINS_11__tree_nodeINS_12__value_typeINS_12basic_stringIcNS_11char_traitsIcEENS1_IcEEEENS_10unique_ptrIN4ezgl6canvasENS_14default_deleteISB_EEEEEEPvEEEELi1ELb1EE5__getB8ue170006Ev, symObjAddr: 0x3790, symBinAddr: 0x10000D440, symSize: 0x10 }
  - { offsetInCU: 0xCC1F, offset: 0x21821, size: 0x8, addend: 0x0, symName: __ZNSt3__14pairIKNS_12basic_stringIcNS_11char_traitsIcEENS_9allocatorIcEEEENS_10unique_ptrIN4ezgl6canvasENS_14default_deleteISA_EEEEED1Ev, symObjAddr: 0x37A0, symBinAddr: 0x10000D450, symSize: 0x20 }
  - { offsetInCU: 0xCC4B, offset: 0x2184D, size: 0x8, addend: 0x0, symName: __ZNSt3__14pairIKNS_12basic_stringIcNS_11char_traitsIcEENS_9allocatorIcEEEENS_10unique_ptrIN4ezgl6canvasENS_14default_deleteISA_EEEEED2Ev, symObjAddr: 0x37C0, symBinAddr: 0x10000D470, symSize: 0x30 }
  - { offsetInCU: 0xCC77, offset: 0x21879, size: 0x8, addend: 0x0, symName: __ZNSt3__19allocatorINS_11__tree_nodeINS_12__value_typeINS_12basic_stringIcNS_11char_traitsIcEENS0_IcEEEENS_10unique_ptrIN4ezgl6canvasENS_14default_deleteISA_EEEEEEPvEEE10deallocateB8ue170006EPSG_m, symObjAddr: 0x37F0, symBinAddr: 0x10000D4A0, symSize: 0x40 }
  - { offsetInCU: 0xCCB9, offset: 0x218BB, size: 0x8, addend: 0x0, symName: __ZNKSt3__16__treeINS_12__value_typeINS_12basic_stringIcNS_11char_traitsIcEENS_9allocatorIcEEEENS_10unique_ptrIN4ezgl6canvasENS_14default_deleteISA_EEEEEENS_19__map_value_compareIS7_SE_NS_4lessIS7_EELb1EEENS5_ISE_EEE10__end_nodeB8ue170006Ev, symObjAddr: 0x38A0, symBinAddr: 0x10000D4E0, symSize: 0x30 }
  - { offsetInCU: 0xCCDF, offset: 0x218E1, size: 0x8, addend: 0x0, symName: __ZNKSt3__117__compressed_pairINS_15__tree_end_nodeIPNS_16__tree_node_baseIPvEEEENS_9allocatorINS_11__tree_nodeINS_12__value_typeINS_12basic_stringIcNS_11char_traitsIcEENS7_IcEEEENS_10unique_ptrIN4ezgl6canvasENS_14default_deleteISH_EEEEEES3_EEEEE5firstB8ue170006Ev, symObjAddr: 0x38D0, symBinAddr: 0x10000D510, symSize: 0x20 }
  - { offsetInCU: 0xCD05, offset: 0x21907, size: 0x8, addend: 0x0, symName: __ZNKSt3__122__compressed_pair_elemINS_15__tree_end_nodeIPNS_16__tree_node_baseIPvEEEELi0ELb0EE5__getB8ue170006Ev, symObjAddr: 0x38F0, symBinAddr: 0x10000D530, symSize: 0x10 }
  - { offsetInCU: 0xCD2B, offset: 0x2192D, size: 0x8, addend: 0x0, symName: __ZNKSt3__16__treeINS_12__value_typeINS_12basic_stringIcNS_11char_traitsIcEENS_9allocatorIcEEEENS_10unique_ptrIN4ezgl6canvasENS_14default_deleteISA_EEEEEENS_19__map_value_compareIS7_SE_NS_4lessIS7_EELb1EEENS5_ISE_EEE4findIS7_EENS_21__tree_const_iteratorISE_PNS_11__tree_nodeISE_PvEElEERKT_, symObjAddr: 0x3900, symBinAddr: 0x10000D540, symSize: 0xE0 }
  - { offsetInCU: 0xCD7A, offset: 0x2197C, size: 0x8, addend: 0x0, symName: __ZNSt3__120__map_const_iteratorINS_21__tree_const_iteratorINS_12__value_typeINS_12basic_stringIcNS_11char_traitsIcEENS_9allocatorIcEEEENS_10unique_ptrIN4ezgl6canvasENS_14default_deleteISB_EEEEEEPNS_11__tree_nodeISF_PvEElEEEC1B8ue170006ESK_, symObjAddr: 0x39E0, symBinAddr: 0x10000D620, symSize: 0x30 }
  - { offsetInCU: 0xCDB3, offset: 0x219B5, size: 0x8, addend: 0x0, symName: __ZNKSt3__16__treeINS_12__value_typeINS_12basic_stringIcNS_11char_traitsIcEENS_9allocatorIcEEEENS_10unique_ptrIN4ezgl6canvasENS_14default_deleteISA_EEEEEENS_19__map_value_compareIS7_SE_NS_4lessIS7_EELb1EEENS5_ISE_EEE13__lower_boundIS7_EENS_21__tree_const_iteratorISE_PNS_11__tree_nodeISE_PvEElEERKT_SQ_PNS_15__tree_end_nodeIPNS_16__tree_node_baseISO_EEEE, symObjAddr: 0x3A10, symBinAddr: 0x10000D650, symSize: 0x90 }
  - { offsetInCU: 0xCE11, offset: 0x21A13, size: 0x8, addend: 0x0, symName: __ZNKSt3__16__treeINS_12__value_typeINS_12basic_stringIcNS_11char_traitsIcEENS_9allocatorIcEEEENS_10unique_ptrIN4ezgl6canvasENS_14default_deleteISA_EEEEEENS_19__map_value_compareIS7_SE_NS_4lessIS7_EELb1EEENS5_ISE_EEE3endB8ue170006Ev, symObjAddr: 0x3AD0, symBinAddr: 0x10000D710, symSize: 0x30 }
  - { offsetInCU: 0xCE37, offset: 0x21A39, size: 0x8, addend: 0x0, symName: __ZNKSt3__16__treeINS_12__value_typeINS_12basic_stringIcNS_11char_traitsIcEENS_9allocatorIcEEEENS_10unique_ptrIN4ezgl6canvasENS_14default_deleteISA_EEEEEENS_19__map_value_compareIS7_SE_NS_4lessIS7_EELb1EEENS5_ISE_EEE10value_compB8ue170006Ev, symObjAddr: 0x3B00, symBinAddr: 0x10000D740, symSize: 0x20 }
  - { offsetInCU: 0xCE5D, offset: 0x21A5F, size: 0x8, addend: 0x0, symName: __ZNKSt3__119__map_value_compareINS_12basic_stringIcNS_11char_traitsIcEENS_9allocatorIcEEEENS_12__value_typeIS6_NS_10unique_ptrIN4ezgl6canvasENS_14default_deleteISA_EEEEEENS_4lessIS6_EELb1EEclB8ue170006ERKS6_RKSE_, symObjAddr: 0x3B20, symBinAddr: 0x10000D760, symSize: 0x50 }
  - { offsetInCU: 0xCEA1, offset: 0x21AA3, size: 0x8, addend: 0x0, symName: __ZNKSt3__121__tree_const_iteratorINS_12__value_typeINS_12basic_stringIcNS_11char_traitsIcEENS_9allocatorIcEEEENS_10unique_ptrIN4ezgl6canvasENS_14default_deleteISA_EEEEEEPNS_11__tree_nodeISE_PvEElEdeB8ue170006Ev, symObjAddr: 0x3B70, symBinAddr: 0x10000D7B0, symSize: 0x20 }
  - { offsetInCU: 0xCEC7, offset: 0x21AC9, size: 0x8, addend: 0x0, symName: __ZNKSt3__119__map_value_compareINS_12basic_stringIcNS_11char_traitsIcEENS_9allocatorIcEEEENS_12__value_typeIS6_NS_10unique_ptrIN4ezgl6canvasENS_14default_deleteISA_EEEEEENS_4lessIS6_EELb1EEclB8ue170006ERKSE_RKS6_, symObjAddr: 0x3B90, symBinAddr: 0x10000D7D0, symSize: 0x40 }
  - { offsetInCU: 0xCF0B, offset: 0x21B0D, size: 0x8, addend: 0x0, symName: __ZNSt3__121__tree_const_iteratorINS_12__value_typeINS_12basic_stringIcNS_11char_traitsIcEENS_9allocatorIcEEEENS_10unique_ptrIN4ezgl6canvasENS_14default_deleteISA_EEEEEEPNS_11__tree_nodeISE_PvEElEC1B8ue170006EPNS_15__tree_end_nodeIPNS_16__tree_node_baseISG_EEEE, symObjAddr: 0x3BD0, symBinAddr: 0x10000D810, symSize: 0x30 }
  - { offsetInCU: 0xCF44, offset: 0x21B46, size: 0x8, addend: 0x0, symName: __ZNKSt3__14lessINS_12basic_stringIcNS_11char_traitsIcEENS_9allocatorIcEEEEEclB8ue170006ERKS6_S9_, symObjAddr: 0x3C00, symBinAddr: 0x10000D840, symSize: 0x30 }
  - { offsetInCU: 0xCF88, offset: 0x21B8A, size: 0x8, addend: 0x0, symName: __ZNKSt3__112__value_typeINS_12basic_stringIcNS_11char_traitsIcEENS_9allocatorIcEEEENS_10unique_ptrIN4ezgl6canvasENS_14default_deleteIS9_EEEEE11__get_valueB8ue170006Ev, symObjAddr: 0x3C30, symBinAddr: 0x10000D870, symSize: 0x10 }
  - { offsetInCU: 0xCFAE, offset: 0x21BB0, size: 0x8, addend: 0x0, symName: __ZNKSt3__112basic_stringIcNS_11char_traitsIcEENS_9allocatorIcEEE7compareB8ue170006ERKS5_, symObjAddr: 0x3C70, symBinAddr: 0x10000D8B0, symSize: 0x40 }
  - { offsetInCU: 0xCFE5, offset: 0x21BE7, size: 0x8, addend: 0x0, symName: __ZNKSt3__112basic_stringIcNS_11char_traitsIcEENS_9allocatorIcEEE7compareINS_17basic_string_viewIcS2_EELi0EEEiRKT_, symObjAddr: 0x3CB0, symBinAddr: 0x10000D8F0, symSize: 0xF0 }
  - { offsetInCU: 0xD068, offset: 0x21C6A, size: 0x8, addend: 0x0, symName: __ZNKSt3__112basic_stringIcNS_11char_traitsIcEENS_9allocatorIcEEEcvNS_17basic_string_viewIcS2_EEB8ue170006Ev, symObjAddr: 0x3DA0, symBinAddr: 0x10000D9E0, symSize: 0x50 }
  - { offsetInCU: 0xD08E, offset: 0x21C90, size: 0x8, addend: 0x0, symName: __ZNKSt3__117basic_string_viewIcNS_11char_traitsIcEEE4sizeB8ue170006Ev, symObjAddr: 0x3E40, symBinAddr: 0x10000DA30, symSize: 0x20 }
  - { offsetInCU: 0xD0B4, offset: 0x21CB6, size: 0x8, addend: 0x0, symName: __ZNSt3__111char_traitsIcE7compareB8ue170006EPKcS3_m, symObjAddr: 0x3E60, symBinAddr: 0x10000DA50, symSize: 0x30 }
  - { offsetInCU: 0xD0F3, offset: 0x21CF5, size: 0x8, addend: 0x0, symName: __ZNKSt3__117basic_string_viewIcNS_11char_traitsIcEEE4dataB8ue170006Ev, symObjAddr: 0x3E90, symBinAddr: 0x10000DA80, symSize: 0x20 }
  - { offsetInCU: 0xD119, offset: 0x21D1B, size: 0x8, addend: 0x0, symName: __ZNSt3__117basic_string_viewIcNS_11char_traitsIcEEEC1B8ue170006EPKcm, symObjAddr: 0x3FB0, symBinAddr: 0x10000DAA0, symSize: 0x30 }
  - { offsetInCU: 0xD161, offset: 0x21D63, size: 0x8, addend: 0x0, symName: __ZNSt3__117basic_string_viewIcNS_11char_traitsIcEEEC2B8ue170006EPKcm, symObjAddr: 0x3FE0, symBinAddr: 0x10000DAD0, symSize: 0x30 }
  - { offsetInCU: 0xD1A9, offset: 0x21DAB, size: 0x8, addend: 0x0, symName: __ZNSt3__121__tree_const_iteratorINS_12__value_typeINS_12basic_stringIcNS_11char_traitsIcEENS_9allocatorIcEEEENS_10unique_ptrIN4ezgl6canvasENS_14default_deleteISA_EEEEEEPNS_11__tree_nodeISE_PvEElEC2B8ue170006EPNS_15__tree_end_nodeIPNS_16__tree_node_baseISG_EEEE, symObjAddr: 0x4010, symBinAddr: 0x10000DB00, symSize: 0x20 }
  - { offsetInCU: 0xD1E2, offset: 0x21DE4, size: 0x8, addend: 0x0, symName: __ZNKSt3__117__compressed_pairImNS_19__map_value_compareINS_12basic_stringIcNS_11char_traitsIcEENS_9allocatorIcEEEENS_12__value_typeIS7_NS_10unique_ptrIN4ezgl6canvasENS_14default_deleteISB_EEEEEENS_4lessIS7_EELb1EEEE6secondB8ue170006Ev, symObjAddr: 0x4060, symBinAddr: 0x10000DB50, symSize: 0x20 }
  - { offsetInCU: 0xD208, offset: 0x21E0A, size: 0x8, addend: 0x0, symName: __ZNKSt3__122__compressed_pair_elemINS_19__map_value_compareINS_12basic_stringIcNS_11char_traitsIcEENS_9allocatorIcEEEENS_12__value_typeIS7_NS_10unique_ptrIN4ezgl6canvasENS_14default_deleteISB_EEEEEENS_4lessIS7_EELb1EEELi1ELb1EE5__getB8ue170006Ev, symObjAddr: 0x4080, symBinAddr: 0x10000DB70, symSize: 0x10 }
  - { offsetInCU: 0xD22E, offset: 0x21E30, size: 0x8, addend: 0x0, symName: __ZNKSt3__121__tree_const_iteratorINS_12__value_typeINS_12basic_stringIcNS_11char_traitsIcEENS_9allocatorIcEEEENS_10unique_ptrIN4ezgl6canvasENS_14default_deleteISA_EEEEEEPNS_11__tree_nodeISE_PvEElE8__get_npB8ue170006Ev, symObjAddr: 0x4090, symBinAddr: 0x10000DB80, symSize: 0x20 }
  - { offsetInCU: 0xD254, offset: 0x21E56, size: 0x8, addend: 0x0, symName: __ZNSt3__120__map_const_iteratorINS_21__tree_const_iteratorINS_12__value_typeINS_12basic_stringIcNS_11char_traitsIcEENS_9allocatorIcEEEENS_10unique_ptrIN4ezgl6canvasENS_14default_deleteISB_EEEEEEPNS_11__tree_nodeISF_PvEElEEEC2B8ue170006ESK_, symObjAddr: 0x40B0, symBinAddr: 0x10000DBA0, symSize: 0x20 }
  - { offsetInCU: 0xD28D, offset: 0x21E8F, size: 0x8, addend: 0x0, symName: __ZNSt3__114pointer_traitsIPKNS_4pairIKNS_12basic_stringIcNS_11char_traitsIcEENS_9allocatorIcEEEENS_10unique_ptrIN4ezgl6canvasENS_14default_deleteISB_EEEEEEE10pointer_toB8ue170006ERSG_, symObjAddr: 0x40D0, symBinAddr: 0x10000DBC0, symSize: 0x10 }
  - { offsetInCU: 0xD2B0, offset: 0x21EB2, size: 0x8, addend: 0x0, symName: __ZNKSt3__121__tree_const_iteratorINS_12__value_typeINS_12basic_stringIcNS_11char_traitsIcEENS_9allocatorIcEEEENS_10unique_ptrIN4ezgl6canvasENS_14default_deleteISA_EEEEEEPNS_11__tree_nodeISE_PvEElEptB8ue170006Ev, symObjAddr: 0x40E0, symBinAddr: 0x10000DBD0, symSize: 0x30 }
  - { offsetInCU: 0xD2D6, offset: 0x21ED8, size: 0x8, addend: 0x0, symName: __ZNSt3__114pointer_traitsIPKNS_12__value_typeINS_12basic_stringIcNS_11char_traitsIcEENS_9allocatorIcEEEENS_10unique_ptrIN4ezgl6canvasENS_14default_deleteISA_EEEEEEE10pointer_toB8ue170006ERSF_, symObjAddr: 0x4110, symBinAddr: 0x10000DC00, symSize: 0x10 }
  - { offsetInCU: 0xD2F9, offset: 0x21EFB, size: 0x8, addend: 0x0, symName: __ZNSt3__110unique_ptrIN4ezgl6canvasENS_14default_deleteIS2_EEEC2B8ue170006ILb1EvEEPS2_, symObjAddr: 0x4120, symBinAddr: 0x10000DC10, symSize: 0x40 }
  - { offsetInCU: 0xD342, offset: 0x21F44, size: 0x8, addend: 0x0, symName: __ZNSt3__117__compressed_pairIPN4ezgl6canvasENS_14default_deleteIS2_EEEC1B8ue170006IRS3_NS_16__value_init_tagEEEOT_OT0_, symObjAddr: 0x4160, symBinAddr: 0x10000DC50, symSize: 0x30 }
  - { offsetInCU: 0xD39A, offset: 0x21F9C, size: 0x8, addend: 0x0, symName: __ZNSt3__117__compressed_pairIPN4ezgl6canvasENS_14default_deleteIS2_EEEC2B8ue170006IRS3_NS_16__value_init_tagEEEOT_OT0_, symObjAddr: 0x4190, symBinAddr: 0x10000DC80, symSize: 0x40 }
  - { offsetInCU: 0xD3F2, offset: 0x21FF4, size: 0x8, addend: 0x0, symName: __ZNSt3__122__compressed_pair_elemIPN4ezgl6canvasELi0ELb0EEC2B8ue170006IRS3_vEEOT_, symObjAddr: 0x41D0, symBinAddr: 0x10000DCC0, symSize: 0x20 }
  - { offsetInCU: 0xD434, offset: 0x22036, size: 0x8, addend: 0x0, symName: __ZNSt3__122__compressed_pair_elemINS_14default_deleteIN4ezgl6canvasEEELi1ELb1EEC2B8ue170006ENS_16__value_init_tagE, symObjAddr: 0x41F0, symBinAddr: 0x10000DCE0, symSize: 0x10 }
  - { offsetInCU: 0xD469, offset: 0x2206B, size: 0x8, addend: 0x0, symName: __ZNSt3__110unique_ptrIN4ezgl6canvasENS_14default_deleteIS2_EEED2B8ue170006Ev, symObjAddr: 0x4200, symBinAddr: 0x10000DCF0, symSize: 0x20 }
  - { offsetInCU: 0xD493, offset: 0x22095, size: 0x8, addend: 0x0, symName: __ZNSt3__110unique_ptrIN4ezgl6canvasENS_14default_deleteIS2_EEE5resetB8ue170006EPS2_, symObjAddr: 0x4220, symBinAddr: 0x10000DD10, symSize: 0x70 }
  - { offsetInCU: 0xD4D7, offset: 0x220D9, size: 0x8, addend: 0x0, symName: __ZNSt3__117__compressed_pairIPN4ezgl6canvasENS_14default_deleteIS2_EEE5firstB8ue170006Ev, symObjAddr: 0x4290, symBinAddr: 0x10000DD80, symSize: 0x20 }
  - { offsetInCU: 0xD4FD, offset: 0x220FF, size: 0x8, addend: 0x0, symName: __ZNSt3__117__compressed_pairIPN4ezgl6canvasENS_14default_deleteIS2_EEE6secondB8ue170006Ev, symObjAddr: 0x42B0, symBinAddr: 0x10000DDA0, symSize: 0x20 }
  - { offsetInCU: 0xD523, offset: 0x22125, size: 0x8, addend: 0x0, symName: __ZNKSt3__114default_deleteIN4ezgl6canvasEEclB8ue170006EPS2_, symObjAddr: 0x42D0, symBinAddr: 0x10000DDC0, symSize: 0x40 }
  - { offsetInCU: 0xD557, offset: 0x22159, size: 0x8, addend: 0x0, symName: __ZNSt3__122__compressed_pair_elemIPN4ezgl6canvasELi0ELb0EE5__getB8ue170006Ev, symObjAddr: 0x4310, symBinAddr: 0x10000DE00, symSize: 0x10 }
  - { offsetInCU: 0xD57D, offset: 0x2217F, size: 0x8, addend: 0x0, symName: __ZNSt3__122__compressed_pair_elemINS_14default_deleteIN4ezgl6canvasEEELi1ELb1EE5__getB8ue170006Ev, symObjAddr: 0x4320, symBinAddr: 0x10000DE10, symSize: 0x10 }
  - { offsetInCU: 0xD5A3, offset: 0x221A5, size: 0x8, addend: 0x0, symName: __ZNSt3__16__treeINS_12__value_typeINS_12basic_stringIcNS_11char_traitsIcEENS_9allocatorIcEEEENS_10unique_ptrIN4ezgl6canvasENS_14default_deleteISA_EEEEEENS_19__map_value_compareIS7_SE_NS_4lessIS7_EELb1EEENS5_ISE_EEE16__emplace_uniqueB8ue170006IRKS7_SD_EENS_9enable_ifIXsr21__can_extract_map_keyIT_S7_NS_4pairISM_SD_EEEE5valueENSQ_INS_15__tree_iteratorISE_PNS_11__tree_nodeISE_PvEElEEbEEE4typeEOSP_OT0_, symObjAddr: 0x4330, symBinAddr: 0x10000DE20, symSize: 0x40 }
  - { offsetInCU: 0xD5F9, offset: 0x221FB, size: 0x8, addend: 0x0, symName: __ZNSt3__14pairINS_14__map_iteratorINS_15__tree_iteratorINS_12__value_typeINS_12basic_stringIcNS_11char_traitsIcEENS_9allocatorIcEEEENS_10unique_ptrIN4ezgl6canvasENS_14default_deleteISC_EEEEEEPNS_11__tree_nodeISG_PvEElEEEEbEC1B8ue170006ISL_bLSI_0EEEONS0_IT_T0_EE, symObjAddr: 0x4370, symBinAddr: 0x10000DE60, symSize: 0x30 }
  - { offsetInCU: 0xD64A, offset: 0x2224C, size: 0x8, addend: 0x0, symName: __ZNSt3__16__treeINS_12__value_typeINS_12basic_stringIcNS_11char_traitsIcEENS_9allocatorIcEEEENS_10unique_ptrIN4ezgl6canvasENS_14default_deleteISA_EEEEEENS_19__map_value_compareIS7_SE_NS_4lessIS7_EELb1EEENS5_ISE_EEE25__emplace_unique_key_argsIS7_JRKS7_SD_EEENS_4pairINS_15__tree_iteratorISE_PNS_11__tree_nodeISE_PvEElEEbEERKT_DpOT0_, symObjAddr: 0x43A0, symBinAddr: 0x10000DE90, symSize: 0xF0 }
  - { offsetInCU: 0xD714, offset: 0x22316, size: 0x8, addend: 0x0, symName: __ZNSt3__16__treeINS_12__value_typeINS_12basic_stringIcNS_11char_traitsIcEENS_9allocatorIcEEEENS_10unique_ptrIN4ezgl6canvasENS_14default_deleteISA_EEEEEENS_19__map_value_compareIS7_SE_NS_4lessIS7_EELb1EEENS5_ISE_EEE12__find_equalIS7_EERPNS_16__tree_node_baseIPvEERPNS_15__tree_end_nodeISP_EERKT_, symObjAddr: 0x4490, symBinAddr: 0x10000DF80, symSize: 0x180 }
  - { offsetInCU: 0xD781, offset: 0x22383, size: 0x8, addend: 0x0, symName: __ZNSt3__16__treeINS_12__value_typeINS_12basic_stringIcNS_11char_traitsIcEENS_9allocatorIcEEEENS_10unique_ptrIN4ezgl6canvasENS_14default_deleteISA_EEEEEENS_19__map_value_compareIS7_SE_NS_4lessIS7_EELb1EEENS5_ISE_EEE16__construct_nodeIJRKS7_SD_EEENS8_INS_11__tree_nodeISE_PvEENS_22__tree_node_destructorINS5_ISQ_EEEEEEDpOT_, symObjAddr: 0x4610, symBinAddr: 0x10000E100, symSize: 0x100 }
  - { offsetInCU: 0xD7F6, offset: 0x223F8, size: 0x8, addend: 0x0, symName: __ZNSt3__16__treeINS_12__value_typeINS_12basic_stringIcNS_11char_traitsIcEENS_9allocatorIcEEEENS_10unique_ptrIN4ezgl6canvasENS_14default_deleteISA_EEEEEENS_19__map_value_compareIS7_SE_NS_4lessIS7_EELb1EEENS5_ISE_EEE16__insert_node_atEPNS_15__tree_end_nodeIPNS_16__tree_node_baseIPvEEEERSP_SP_, symObjAddr: 0x4710, symBinAddr: 0x10000E200, symSize: 0xC0 }
  - { offsetInCU: 0xD84B, offset: 0x2244D, size: 0x8, addend: 0x0, symName: __ZNKSt3__110unique_ptrINS_11__tree_nodeINS_12__value_typeINS_12basic_stringIcNS_11char_traitsIcEENS_9allocatorIcEEEENS0_IN4ezgl6canvasENS_14default_deleteISA_EEEEEEPvEENS_22__tree_node_destructorINS6_ISG_EEEEE3getB8ue170006Ev, symObjAddr: 0x47D0, symBinAddr: 0x10000E2C0, symSize: 0x20 }
  - { offsetInCU: 0xD871, offset: 0x22473, size: 0x8, addend: 0x0, symName: __ZNSt3__110unique_ptrINS_11__tree_nodeINS_12__value_typeINS_12basic_stringIcNS_11char_traitsIcEENS_9allocatorIcEEEENS0_IN4ezgl6canvasENS_14default_deleteISA_EEEEEEPvEENS_22__tree_node_destructorINS6_ISG_EEEEE7releaseB8ue170006Ev, symObjAddr: 0x47F0, symBinAddr: 0x10000E2E0, symSize: 0x40 }
  - { offsetInCU: 0xD8A6, offset: 0x224A8, size: 0x8, addend: 0x0, symName: __ZNSt3__110unique_ptrINS_11__tree_nodeINS_12__value_typeINS_12basic_stringIcNS_11char_traitsIcEENS_9allocatorIcEEEENS0_IN4ezgl6canvasENS_14default_deleteISA_EEEEEEPvEENS_22__tree_node_destructorINS6_ISG_EEEEED1B8ue170006Ev, symObjAddr: 0x4830, symBinAddr: 0x10000E320, symSize: 0x20 }
  - { offsetInCU: 0xD8D0, offset: 0x224D2, size: 0x8, addend: 0x0, symName: __ZNSt3__115__tree_iteratorINS_12__value_typeINS_12basic_stringIcNS_11char_traitsIcEENS_9allocatorIcEEEENS_10unique_ptrIN4ezgl6canvasENS_14default_deleteISA_EEEEEEPNS_11__tree_nodeISE_PvEElEC1B8ue170006ESI_, symObjAddr: 0x4850, symBinAddr: 0x10000E340, symSize: 0x30 }
  - { offsetInCU: 0xD914, offset: 0x22516, size: 0x8, addend: 0x0, symName: __ZNSt3__14pairINS_15__tree_iteratorINS_12__value_typeINS_12basic_stringIcNS_11char_traitsIcEENS_9allocatorIcEEEENS_10unique_ptrIN4ezgl6canvasENS_14default_deleteISB_EEEEEEPNS_11__tree_nodeISF_PvEElEEbEC1B8ue170006ISK_RbLSH_0EEEOT_OT0_, symObjAddr: 0x4880, symBinAddr: 0x10000E370, symSize: 0x30 }
  - { offsetInCU: 0xD972, offset: 0x22574, size: 0x8, addend: 0x0, symName: __ZNKSt3__16__treeINS_12__value_typeINS_12basic_stringIcNS_11char_traitsIcEENS_9allocatorIcEEEENS_10unique_ptrIN4ezgl6canvasENS_14default_deleteISA_EEEEEENS_19__map_value_compareIS7_SE_NS_4lessIS7_EELb1EEENS5_ISE_EEE10__root_ptrB8ue170006Ev, symObjAddr: 0x48B0, symBinAddr: 0x10000E3A0, symSize: 0x20 }
  - { offsetInCU: 0xD998, offset: 0x2259A, size: 0x8, addend: 0x0, symName: __ZNSt3__16__treeINS_12__value_typeINS_12basic_stringIcNS_11char_traitsIcEENS_9allocatorIcEEEENS_10unique_ptrIN4ezgl6canvasENS_14default_deleteISA_EEEEEENS_19__map_value_compareIS7_SE_NS_4lessIS7_EELb1EEENS5_ISE_EEE10value_compB8ue170006Ev, symObjAddr: 0x48D0, symBinAddr: 0x10000E3C0, symSize: 0x20 }
  - { offsetInCU: 0xD9BE, offset: 0x225C0, size: 0x8, addend: 0x0, symName: __ZNSt3__117__compressed_pairImNS_19__map_value_compareINS_12basic_stringIcNS_11char_traitsIcEENS_9allocatorIcEEEENS_12__value_typeIS7_NS_10unique_ptrIN4ezgl6canvasENS_14default_deleteISB_EEEEEENS_4lessIS7_EELb1EEEE6secondB8ue170006Ev, symObjAddr: 0x48F0, symBinAddr: 0x10000E3E0, symSize: 0x20 }
  - { offsetInCU: 0xD9E4, offset: 0x225E6, size: 0x8, addend: 0x0, symName: __ZNSt3__122__compressed_pair_elemINS_19__map_value_compareINS_12basic_stringIcNS_11char_traitsIcEENS_9allocatorIcEEEENS_12__value_typeIS7_NS_10unique_ptrIN4ezgl6canvasENS_14default_deleteISB_EEEEEENS_4lessIS7_EELb1EEELi1ELb1EE5__getB8ue170006Ev, symObjAddr: 0x4910, symBinAddr: 0x10000E400, symSize: 0x10 }
  - { offsetInCU: 0xDA0A, offset: 0x2260C, size: 0x8, addend: 0x0, symName: __ZNSt3__116allocator_traitsINS_9allocatorINS_11__tree_nodeINS_12__value_typeINS_12basic_stringIcNS_11char_traitsIcEENS1_IcEEEENS_10unique_ptrIN4ezgl6canvasENS_14default_deleteISB_EEEEEEPvEEEEE8allocateB8ue170006ERSI_m, symObjAddr: 0x4920, symBinAddr: 0x10000E410, symSize: 0x30 }
  - { offsetInCU: 0xDA3D, offset: 0x2263F, size: 0x8, addend: 0x0, symName: __ZNSt3__122__tree_node_destructorINS_9allocatorINS_11__tree_nodeINS_12__value_typeINS_12basic_stringIcNS_11char_traitsIcEENS1_IcEEEENS_10unique_ptrIN4ezgl6canvasENS_14default_deleteISB_EEEEEEPvEEEEEC1B8ue170006ERSI_b, symObjAddr: 0x4950, symBinAddr: 0x10000E440, symSize: 0x40 }
  - { offsetInCU: 0xDA8B, offset: 0x2268D, size: 0x8, addend: 0x0, symName: __ZNSt3__110unique_ptrINS_11__tree_nodeINS_12__value_typeINS_12basic_stringIcNS_11char_traitsIcEENS_9allocatorIcEEEENS0_IN4ezgl6canvasENS_14default_deleteISA_EEEEEEPvEENS_22__tree_node_destructorINS6_ISG_EEEEEC1B8ue170006ILb1EvEEPSG_NS_16__dependent_typeINS_27__unique_ptr_deleter_sfinaeISJ_EEXT_EE20__good_rval_ref_typeE, symObjAddr: 0x4990, symBinAddr: 0x10000E480, symSize: 0x30 }
  - { offsetInCU: 0xDADC, offset: 0x226DE, size: 0x8, addend: 0x0, symName: __ZNSt3__116allocator_traitsINS_9allocatorINS_11__tree_nodeINS_12__value_typeINS_12basic_stringIcNS_11char_traitsIcEENS1_IcEEEENS_10unique_ptrIN4ezgl6canvasENS_14default_deleteISB_EEEEEEPvEEEEE9constructB8ue170006INS_4pairIKS8_SE_EEJRSM_SE_EvEEvRSI_PT_DpOT0_, symObjAddr: 0x49C0, symBinAddr: 0x10000E4B0, symSize: 0x40 }
  - { offsetInCU: 0xDB47, offset: 0x22749, size: 0x8, addend: 0x0, symName: __ZNKSt3__110unique_ptrINS_11__tree_nodeINS_12__value_typeINS_12basic_stringIcNS_11char_traitsIcEENS_9allocatorIcEEEENS0_IN4ezgl6canvasENS_14default_deleteISA_EEEEEEPvEENS_22__tree_node_destructorINS6_ISG_EEEEEptB8ue170006Ev, symObjAddr: 0x4A00, symBinAddr: 0x10000E4F0, symSize: 0x20 }
  - { offsetInCU: 0xDB6D, offset: 0x2276F, size: 0x8, addend: 0x0, symName: __ZNSt3__110unique_ptrINS_11__tree_nodeINS_12__value_typeINS_12basic_stringIcNS_11char_traitsIcEENS_9allocatorIcEEEENS0_IN4ezgl6canvasENS_14default_deleteISA_EEEEEEPvEENS_22__tree_node_destructorINS6_ISG_EEEEE11get_deleterB8ue170006Ev, symObjAddr: 0x4A20, symBinAddr: 0x10000E510, symSize: 0x20 }
  - { offsetInCU: 0xDB93, offset: 0x22795, size: 0x8, addend: 0x0, symName: __ZNSt3__19allocatorINS_11__tree_nodeINS_12__value_typeINS_12basic_stringIcNS_11char_traitsIcEENS0_IcEEEENS_10unique_ptrIN4ezgl6canvasENS_14default_deleteISA_EEEEEEPvEEE8allocateB8ue170006Em, symObjAddr: 0x4A40, symBinAddr: 0x10000E530, symSize: 0x50 }
  - { offsetInCU: 0xDBD1, offset: 0x227D3, size: 0x8, addend: 0x0, symName: __ZNSt3__116allocator_traitsINS_9allocatorINS_11__tree_nodeINS_12__value_typeINS_12basic_stringIcNS_11char_traitsIcEENS1_IcEEEENS_10unique_ptrIN4ezgl6canvasENS_14default_deleteISB_EEEEEEPvEEEEE8max_sizeB8ue170006ISI_vEEmRKSI_, symObjAddr: 0x4A90, symBinAddr: 0x10000E580, symSize: 0x20 }
  - { offsetInCU: 0xDBFF, offset: 0x22801, size: 0x8, addend: 0x0, symName: __ZNKSt3__19allocatorINS_11__tree_nodeINS_12__value_typeINS_12basic_stringIcNS_11char_traitsIcEENS0_IcEEEENS_10unique_ptrIN4ezgl6canvasENS_14default_deleteISA_EEEEEEPvEEE8max_sizeB8ue170006Ev, symObjAddr: 0x4B10, symBinAddr: 0x10000E5A0, symSize: 0x20 }
  - { offsetInCU: 0xDC25, offset: 0x22827, size: 0x8, addend: 0x0, symName: __ZNSt3__122__tree_node_destructorINS_9allocatorINS_11__tree_nodeINS_12__value_typeINS_12basic_stringIcNS_11char_traitsIcEENS1_IcEEEENS_10unique_ptrIN4ezgl6canvasENS_14default_deleteISB_EEEEEEPvEEEEEC2B8ue170006ERSI_b, symObjAddr: 0x4B50, symBinAddr: 0x10000E5C0, symSize: 0x30 }
  - { offsetInCU: 0xDC6D, offset: 0x2286F, size: 0x8, addend: 0x0, symName: __ZNSt3__110unique_ptrINS_11__tree_nodeINS_12__value_typeINS_12basic_stringIcNS_11char_traitsIcEENS_9allocatorIcEEEENS0_IN4ezgl6canvasENS_14default_deleteISA_EEEEEEPvEENS_22__tree_node_destructorINS6_ISG_EEEEEC2B8ue170006ILb1EvEEPSG_NS_16__dependent_typeINS_27__unique_ptr_deleter_sfinaeISJ_EEXT_EE20__good_rval_ref_typeE, symObjAddr: 0x4B80, symBinAddr: 0x10000E5F0, symSize: 0x40 }
  - { offsetInCU: 0xDCBE, offset: 0x228C0, size: 0x8, addend: 0x0, symName: __ZNSt3__117__compressed_pairIPNS_11__tree_nodeINS_12__value_typeINS_12basic_stringIcNS_11char_traitsIcEENS_9allocatorIcEEEENS_10unique_ptrIN4ezgl6canvasENS_14default_deleteISB_EEEEEEPvEENS_22__tree_node_destructorINS6_ISH_EEEEEC1B8ue170006IRSI_SL_EEOT_OT0_, symObjAddr: 0x4BC0, symBinAddr: 0x10000E630, symSize: 0x30 }
  - { offsetInCU: 0xDD16, offset: 0x22918, size: 0x8, addend: 0x0, symName: __ZNSt3__117__compressed_pairIPNS_11__tree_nodeINS_12__value_typeINS_12basic_stringIcNS_11char_traitsIcEENS_9allocatorIcEEEENS_10unique_ptrIN4ezgl6canvasENS_14default_deleteISB_EEEEEEPvEENS_22__tree_node_destructorINS6_ISH_EEEEEC2B8ue170006IRSI_SL_EEOT_OT0_, symObjAddr: 0x4BF0, symBinAddr: 0x10000E660, symSize: 0x40 }
  - { offsetInCU: 0xDD6E, offset: 0x22970, size: 0x8, addend: 0x0, symName: __ZNSt3__122__compressed_pair_elemIPNS_11__tree_nodeINS_12__value_typeINS_12basic_stringIcNS_11char_traitsIcEENS_9allocatorIcEEEENS_10unique_ptrIN4ezgl6canvasENS_14default_deleteISB_EEEEEEPvEELi0ELb0EEC2B8ue170006IRSI_vEEOT_, symObjAddr: 0x4C30, symBinAddr: 0x10000E6A0, symSize: 0x20 }
  - { offsetInCU: 0xDDB0, offset: 0x229B2, size: 0x8, addend: 0x0, symName: __ZNSt3__122__compressed_pair_elemINS_22__tree_node_destructorINS_9allocatorINS_11__tree_nodeINS_12__value_typeINS_12basic_stringIcNS_11char_traitsIcEENS2_IcEEEENS_10unique_ptrIN4ezgl6canvasENS_14default_deleteISC_EEEEEEPvEEEEEELi1ELb0EEC2B8ue170006ISK_vEEOT_, symObjAddr: 0x4C50, symBinAddr: 0x10000E6C0, symSize: 0x30 }
  - { offsetInCU: 0xDDF2, offset: 0x229F4, size: 0x8, addend: 0x0, symName: __ZNSt3__19allocatorINS_11__tree_nodeINS_12__value_typeINS_12basic_stringIcNS_11char_traitsIcEENS0_IcEEEENS_10unique_ptrIN4ezgl6canvasENS_14default_deleteISA_EEEEEEPvEEE9constructB8ue170006INS_4pairIKS7_SD_EEJRSK_SD_EEEvPT_DpOT0_, symObjAddr: 0x4C80, symBinAddr: 0x10000E6F0, symSize: 0x30 }
  - { offsetInCU: 0xDE5B, offset: 0x22A5D, size: 0x8, addend: 0x0, symName: __ZNSt3__14pairIKNS_12basic_stringIcNS_11char_traitsIcEENS_9allocatorIcEEEENS_10unique_ptrIN4ezgl6canvasENS_14default_deleteISA_EEEEEC1B8ue170006IRS7_SD_LPv0EEEOT_OT0_, symObjAddr: 0x4CB0, symBinAddr: 0x10000E720, symSize: 0x30 }
  - { offsetInCU: 0xDEB9, offset: 0x22ABB, size: 0x8, addend: 0x0, symName: __ZNSt3__14pairIKNS_12basic_stringIcNS_11char_traitsIcEENS_9allocatorIcEEEENS_10unique_ptrIN4ezgl6canvasENS_14default_deleteISA_EEEEEC2B8ue170006IRS7_SD_LPv0EEEOT_OT0_, symObjAddr: 0x4CE0, symBinAddr: 0x10000E750, symSize: 0x40 }
  - { offsetInCU: 0xDF17, offset: 0x22B19, size: 0x8, addend: 0x0, symName: __ZNSt3__110unique_ptrIN4ezgl6canvasENS_14default_deleteIS2_EEEC1B8ue170006EOS5_, symObjAddr: 0x4D20, symBinAddr: 0x10000E790, symSize: 0x30 }
  - { offsetInCU: 0xDF4F, offset: 0x22B51, size: 0x8, addend: 0x0, symName: __ZNSt3__110unique_ptrIN4ezgl6canvasENS_14default_deleteIS2_EEEC2B8ue170006EOS5_, symObjAddr: 0x4D50, symBinAddr: 0x10000E7C0, symSize: 0x60 }
  - { offsetInCU: 0xDF87, offset: 0x22B89, size: 0x8, addend: 0x0, symName: __ZNSt3__110unique_ptrIN4ezgl6canvasENS_14default_deleteIS2_EEE7releaseB8ue170006Ev, symObjAddr: 0x4DB0, symBinAddr: 0x10000E820, symSize: 0x40 }
  - { offsetInCU: 0xDFBC, offset: 0x22BBE, size: 0x8, addend: 0x0, symName: __ZNSt3__110unique_ptrIN4ezgl6canvasENS_14default_deleteIS2_EEE11get_deleterB8ue170006Ev, symObjAddr: 0x4DF0, symBinAddr: 0x10000E860, symSize: 0x20 }
  - { offsetInCU: 0xDFEE, offset: 0x22BF0, size: 0x8, addend: 0x0, symName: __ZNSt3__117__compressed_pairIPN4ezgl6canvasENS_14default_deleteIS2_EEEC1B8ue170006IS3_S5_EEOT_OT0_, symObjAddr: 0x4E10, symBinAddr: 0x10000E880, symSize: 0x30 }
  - { offsetInCU: 0xE046, offset: 0x22C48, size: 0x8, addend: 0x0, symName: __ZNSt3__117__compressed_pairIPN4ezgl6canvasENS_14default_deleteIS2_EEEC2B8ue170006IS3_S5_EEOT_OT0_, symObjAddr: 0x4E40, symBinAddr: 0x10000E8B0, symSize: 0x40 }
  - { offsetInCU: 0xE09E, offset: 0x22CA0, size: 0x8, addend: 0x0, symName: __ZNSt3__122__compressed_pair_elemIPN4ezgl6canvasELi0ELb0EEC2B8ue170006IS3_vEEOT_, symObjAddr: 0x4E80, symBinAddr: 0x10000E8F0, symSize: 0x20 }
  - { offsetInCU: 0xE0E0, offset: 0x22CE2, size: 0x8, addend: 0x0, symName: __ZNSt3__122__compressed_pair_elemINS_14default_deleteIN4ezgl6canvasEEELi1ELb1EEC2B8ue170006IS4_vEEOT_, symObjAddr: 0x4EA0, symBinAddr: 0x10000E910, symSize: 0x10 }
  - { offsetInCU: 0xE122, offset: 0x22D24, size: 0x8, addend: 0x0, symName: __ZNKSt3__117__compressed_pairIPNS_11__tree_nodeINS_12__value_typeINS_12basic_stringIcNS_11char_traitsIcEENS_9allocatorIcEEEENS_10unique_ptrIN4ezgl6canvasENS_14default_deleteISB_EEEEEEPvEENS_22__tree_node_destructorINS6_ISH_EEEEE5firstB8ue170006Ev, symObjAddr: 0x4EB0, symBinAddr: 0x10000E920, symSize: 0x20 }
  - { offsetInCU: 0xE148, offset: 0x22D4A, size: 0x8, addend: 0x0, symName: __ZNKSt3__122__compressed_pair_elemIPNS_11__tree_nodeINS_12__value_typeINS_12basic_stringIcNS_11char_traitsIcEENS_9allocatorIcEEEENS_10unique_ptrIN4ezgl6canvasENS_14default_deleteISB_EEEEEEPvEELi0ELb0EE5__getB8ue170006Ev, symObjAddr: 0x4ED0, symBinAddr: 0x10000E940, symSize: 0x10 }
  - { offsetInCU: 0xE16E, offset: 0x22D70, size: 0x8, addend: 0x0, symName: __ZNSt3__117__compressed_pairIPNS_11__tree_nodeINS_12__value_typeINS_12basic_stringIcNS_11char_traitsIcEENS_9allocatorIcEEEENS_10unique_ptrIN4ezgl6canvasENS_14default_deleteISB_EEEEEEPvEENS_22__tree_node_destructorINS6_ISH_EEEEE6secondB8ue170006Ev, symObjAddr: 0x4EE0, symBinAddr: 0x10000E950, symSize: 0x20 }
  - { offsetInCU: 0xE194, offset: 0x22D96, size: 0x8, addend: 0x0, symName: __ZNSt3__122__compressed_pair_elemINS_22__tree_node_destructorINS_9allocatorINS_11__tree_nodeINS_12__value_typeINS_12basic_stringIcNS_11char_traitsIcEENS2_IcEEEENS_10unique_ptrIN4ezgl6canvasENS_14default_deleteISC_EEEEEEPvEEEEEELi1ELb0EE5__getB8ue170006Ev, symObjAddr: 0x4F00, symBinAddr: 0x10000E970, symSize: 0x10 }
  - { offsetInCU: 0xE1BA, offset: 0x22DBC, size: 0x8, addend: 0x0, symName: __ZNSt3__16__treeINS_12__value_typeINS_12basic_stringIcNS_11char_traitsIcEENS_9allocatorIcEEEENS_10unique_ptrIN4ezgl6canvasENS_14default_deleteISA_EEEEEENS_19__map_value_compareIS7_SE_NS_4lessIS7_EELb1EEENS5_ISE_EEE4sizeB8ue170006Ev, symObjAddr: 0x5150, symBinAddr: 0x10000EBC0, symSize: 0x20 }
  - { offsetInCU: 0xE1E0, offset: 0x22DE2, size: 0x8, addend: 0x0, symName: __ZNSt3__116__tree_node_baseIPvE12__set_parentB8ue170006EPS2_, symObjAddr: 0x5300, symBinAddr: 0x10000ED70, symSize: 0x20 }
  - { offsetInCU: 0xE215, offset: 0x22E17, size: 0x8, addend: 0x0, symName: __ZNSt3__117__compressed_pairImNS_19__map_value_compareINS_12basic_stringIcNS_11char_traitsIcEENS_9allocatorIcEEEENS_12__value_typeIS7_NS_10unique_ptrIN4ezgl6canvasENS_14default_deleteISB_EEEEEENS_4lessIS7_EELb1EEEE5firstB8ue170006Ev, symObjAddr: 0x5320, symBinAddr: 0x10000ED90, symSize: 0x20 }
  - { offsetInCU: 0xE23B, offset: 0x22E3D, size: 0x8, addend: 0x0, symName: __ZNSt3__122__compressed_pair_elemImLi0ELb0EE5__getB8ue170006Ev, symObjAddr: 0x5340, symBinAddr: 0x10000EDB0, symSize: 0x10 }
  - { offsetInCU: 0xE261, offset: 0x22E63, size: 0x8, addend: 0x0, symName: __ZNSt3__117__compressed_pairIPNS_11__tree_nodeINS_12__value_typeINS_12basic_stringIcNS_11char_traitsIcEENS_9allocatorIcEEEENS_10unique_ptrIN4ezgl6canvasENS_14default_deleteISB_EEEEEEPvEENS_22__tree_node_destructorINS6_ISH_EEEEE5firstB8ue170006Ev, symObjAddr: 0x5350, symBinAddr: 0x10000EDC0, symSize: 0x20 }
  - { offsetInCU: 0xE287, offset: 0x22E89, size: 0x8, addend: 0x0, symName: __ZNSt3__122__compressed_pair_elemIPNS_11__tree_nodeINS_12__value_typeINS_12basic_stringIcNS_11char_traitsIcEENS_9allocatorIcEEEENS_10unique_ptrIN4ezgl6canvasENS_14default_deleteISB_EEEEEEPvEELi0ELb0EE5__getB8ue170006Ev, symObjAddr: 0x5370, symBinAddr: 0x10000EDE0, symSize: 0x10 }
  - { offsetInCU: 0xE2AD, offset: 0x22EAF, size: 0x8, addend: 0x0, symName: __ZNSt3__110unique_ptrINS_11__tree_nodeINS_12__value_typeINS_12basic_stringIcNS_11char_traitsIcEENS_9allocatorIcEEEENS0_IN4ezgl6canvasENS_14default_deleteISA_EEEEEEPvEENS_22__tree_node_destructorINS6_ISG_EEEEED2B8ue170006Ev, symObjAddr: 0x5380, symBinAddr: 0x10000EDF0, symSize: 0x20 }
  - { offsetInCU: 0xE2D7, offset: 0x22ED9, size: 0x8, addend: 0x0, symName: __ZNSt3__110unique_ptrINS_11__tree_nodeINS_12__value_typeINS_12basic_stringIcNS_11char_traitsIcEENS_9allocatorIcEEEENS0_IN4ezgl6canvasENS_14default_deleteISA_EEEEEEPvEENS_22__tree_node_destructorINS6_ISG_EEEEE5resetB8ue170006EPSG_, symObjAddr: 0x53A0, symBinAddr: 0x10000EE10, symSize: 0x70 }
  - { offsetInCU: 0xE31B, offset: 0x22F1D, size: 0x8, addend: 0x0, symName: __ZNSt3__122__tree_node_destructorINS_9allocatorINS_11__tree_nodeINS_12__value_typeINS_12basic_stringIcNS_11char_traitsIcEENS1_IcEEEENS_10unique_ptrIN4ezgl6canvasENS_14default_deleteISB_EEEEEEPvEEEEEclB8ue170006EPSH_, symObjAddr: 0x5410, symBinAddr: 0x10000EE80, symSize: 0x70 }
  - { offsetInCU: 0xE350, offset: 0x22F52, size: 0x8, addend: 0x0, symName: __ZNSt3__115__tree_iteratorINS_12__value_typeINS_12basic_stringIcNS_11char_traitsIcEENS_9allocatorIcEEEENS_10unique_ptrIN4ezgl6canvasENS_14default_deleteISA_EEEEEEPNS_11__tree_nodeISE_PvEElEC2B8ue170006ESI_, symObjAddr: 0x5480, symBinAddr: 0x10000EEF0, symSize: 0x20 }
  - { offsetInCU: 0xE389, offset: 0x22F8B, size: 0x8, addend: 0x0, symName: __ZNSt3__14pairINS_15__tree_iteratorINS_12__value_typeINS_12basic_stringIcNS_11char_traitsIcEENS_9allocatorIcEEEENS_10unique_ptrIN4ezgl6canvasENS_14default_deleteISB_EEEEEEPNS_11__tree_nodeISF_PvEElEEbEC2B8ue170006ISK_RbLSH_0EEEOT_OT0_, symObjAddr: 0x54A0, symBinAddr: 0x10000EF10, symSize: 0x30 }
  - { offsetInCU: 0xE3E7, offset: 0x22FE9, size: 0x8, addend: 0x0, symName: __ZNSt3__14pairINS_14__map_iteratorINS_15__tree_iteratorINS_12__value_typeINS_12basic_stringIcNS_11char_traitsIcEENS_9allocatorIcEEEENS_10unique_ptrIN4ezgl6canvasENS_14default_deleteISC_EEEEEEPNS_11__tree_nodeISG_PvEElEEEEbEC2B8ue170006ISL_bLSI_0EEEONS0_IT_T0_EE, symObjAddr: 0x54D0, symBinAddr: 0x10000EF40, symSize: 0x50 }
  - { offsetInCU: 0xE438, offset: 0x2303A, size: 0x8, addend: 0x0, symName: __ZNSt3__114pointer_traitsIPNS_4pairIKNS_12basic_stringIcNS_11char_traitsIcEENS_9allocatorIcEEEENS_10unique_ptrIN4ezgl6canvasENS_14default_deleteISB_EEEEEEE10pointer_toB8ue170006ERSF_, symObjAddr: 0x5520, symBinAddr: 0x10000EF90, symSize: 0x10 }
  - { offsetInCU: 0xE45B, offset: 0x2305D, size: 0x8, addend: 0x0, symName: __ZNSt3__16vectorINS_12basic_stringIcNS_11char_traitsIcEENS_9allocatorIcEEEENS4_IS6_EEEC2ERKS8_, symObjAddr: 0x5530, symBinAddr: 0x10000EFA0, symSize: 0xA0 }
  - { offsetInCU: 0xE4A0, offset: 0x230A2, size: 0x8, addend: 0x0, symName: __ZNSt3__116allocator_traitsINS_9allocatorINS_12basic_stringIcNS_11char_traitsIcEENS1_IcEEEEEEE37select_on_container_copy_constructionB8ue170006IS7_vvEES7_RKS7_, symObjAddr: 0x55D0, symBinAddr: 0x10000F040, symSize: 0x10 }
  - { offsetInCU: 0xE4DB, offset: 0x230DD, size: 0x8, addend: 0x0, symName: __ZNSt3__117__compressed_pairIPNS_12basic_stringIcNS_11char_traitsIcEENS_9allocatorIcEEEENS4_IS6_EEEC1B8ue170006IDnS8_EEOT_OT0_, symObjAddr: 0x5600, symBinAddr: 0x10000F050, symSize: 0x30 }
  - { offsetInCU: 0xE533, offset: 0x23135, size: 0x8, addend: 0x0, symName: __ZNSt3__16vectorINS_12basic_stringIcNS_11char_traitsIcEENS_9allocatorIcEEEENS4_IS6_EEE16__init_with_sizeB8ue170006IPS6_SA_EEvT_T0_m, symObjAddr: 0x5630, symBinAddr: 0x10000F080, symSize: 0xB0 }
  - { offsetInCU: 0xE5A7, offset: 0x231A9, size: 0x8, addend: 0x0, symName: __ZNSt3__117__compressed_pairIPNS_12basic_stringIcNS_11char_traitsIcEENS_9allocatorIcEEEENS4_IS6_EEEC2B8ue170006IDnS8_EEOT_OT0_, symObjAddr: 0x5710, symBinAddr: 0x10000F130, symSize: 0x40 }
  - { offsetInCU: 0xE5FF, offset: 0x23201, size: 0x8, addend: 0x0, symName: __ZNSt3__122__compressed_pair_elemINS_9allocatorINS_12basic_stringIcNS_11char_traitsIcEENS1_IcEEEEEELi1ELb1EEC2B8ue170006IS7_vEEOT_, symObjAddr: 0x5770, symBinAddr: 0x10000F170, symSize: 0x10 }
  - { offsetInCU: 0xE641, offset: 0x23243, size: 0x8, addend: 0x0, symName: __ZNSt3__16vectorINS_12basic_stringIcNS_11char_traitsIcEENS_9allocatorIcEEEENS4_IS6_EEE18__construct_at_endIPS6_SA_EEvT_T0_m, symObjAddr: 0x5890, symBinAddr: 0x10000F180, symSize: 0x90 }
  - { offsetInCU: 0xE6F0, offset: 0x232F2, size: 0x8, addend: 0x0, symName: __ZNSt3__14pairIPNS_12basic_stringIcNS_11char_traitsIcEENS_9allocatorIcEEEES7_EC1B8ue170006IS7_S7_LPv0EEEOT_OT0_, symObjAddr: 0x6130, symBinAddr: 0x10000F410, symSize: 0x30 }
  - { offsetInCU: 0xE74E, offset: 0x23350, size: 0x8, addend: 0x0, symName: __ZNSt3__14pairIPNS_12basic_stringIcNS_11char_traitsIcEENS_9allocatorIcEEEES7_EC2B8ue170006IS7_S7_LPv0EEEOT_OT0_, symObjAddr: 0x6160, symBinAddr: 0x10000F440, symSize: 0x30 }
  - { offsetInCU: 0xE7AC, offset: 0x233AE, size: 0x8, addend: 0x0, symName: __ZNSt3__116allocator_traitsINS_9allocatorINS_12basic_stringIcNS_11char_traitsIcEENS1_IcEEEEEEE9constructB8ue170006IS6_JRS6_EvEEvRS7_PT_DpOT0_, symObjAddr: 0x6230, symBinAddr: 0x10000F470, symSize: 0x30 }
  - { offsetInCU: 0xE803, offset: 0x23405, size: 0x8, addend: 0x0, symName: __ZNSt3__19allocatorINS_12basic_stringIcNS_11char_traitsIcEENS0_IcEEEEE9constructB8ue170006IS5_JRS5_EEEvPT_DpOT0_, symObjAddr: 0x6350, symBinAddr: 0x10000F4A0, symSize: 0x30 }
  - { offsetInCU: 0xE859, offset: 0x2345B, size: 0x8, addend: 0x0, symName: __ZNSt3__16vectorINS_12basic_stringIcNS_11char_traitsIcEENS_9allocatorIcEEEENS4_IS6_EEE11__make_iterB8ue170006EPS6_, symObjAddr: 0x69E0, symBinAddr: 0x10000F4D0, symSize: 0x30 }
  - { offsetInCU: 0xE88E, offset: 0x23490, size: 0x8, addend: 0x0, symName: __ZNSt3__111__wrap_iterIPNS_12basic_stringIcNS_11char_traitsIcEENS_9allocatorIcEEEEEC1B8ue170006ES7_, symObjAddr: 0x6A10, symBinAddr: 0x10000F500, symSize: 0x30 }
  - { offsetInCU: 0xE8C6, offset: 0x234C8, size: 0x8, addend: 0x0, symName: __ZNSt3__111__wrap_iterIPNS_12basic_stringIcNS_11char_traitsIcEENS_9allocatorIcEEEEEC2B8ue170006ES7_, symObjAddr: 0x6A40, symBinAddr: 0x10000F530, symSize: 0x20 }
  - { offsetInCU: 0x26, offset: 0x23663, size: 0x8, addend: 0x0, symName: __ZN4ezgl9press_keyEP10_GtkWidgetP12_GdkEventKeyPv, symObjAddr: 0x0, symBinAddr: 0x10000F550, symSize: 0x80 }
  - { offsetInCU: 0x45, offset: 0x23682, size: 0x8, addend: 0x0, symName: __ZN4ezgl11g_mouse_panE, symObjAddr: 0x27790, symBinAddr: 0x10001D068, symSize: 0x0 }
  - { offsetInCU: 0xD07, offset: 0x24344, size: 0x8, addend: 0x0, symName: __ZN4ezgl9press_keyEP10_GtkWidgetP12_GdkEventKeyPv, symObjAddr: 0x0, symBinAddr: 0x10000F550, symSize: 0x80 }
  - { offsetInCU: 0xD5A, offset: 0x24397, size: 0x8, addend: 0x0, symName: __ZN4ezgl11press_mouseEP10_GtkWidgetP15_GdkEventButtonPv, symObjAddr: 0x80, symBinAddr: 0x10000F5D0, symSize: 0x1A0 }
  - { offsetInCU: 0xDEE, offset: 0x2442B, size: 0x8, addend: 0x0, symName: __ZN4ezgl13release_mouseEP10_GtkWidgetP15_GdkEventButtonPv, symObjAddr: 0x2A0, symBinAddr: 0x10000F770, symSize: 0x180 }
  - { offsetInCU: 0xE82, offset: 0x244BF, size: 0x8, addend: 0x0, symName: __ZN4ezgl10move_mouseEP10_GtkWidgetP15_GdkEventButtonPv, symObjAddr: 0x420, symBinAddr: 0x10000F8F0, symSize: 0x390 }
  - { offsetInCU: 0xF84, offset: 0x245C1, size: 0x8, addend: 0x0, symName: __ZN4ezgl12scroll_mouseEP10_GtkWidgetP9_GdkEventPv, symObjAddr: 0x7B0, symBinAddr: 0x10000FC80, symSize: 0x170 }
  - { offsetInCU: 0x1017, offset: 0x24654, size: 0x8, addend: 0x0, symName: __ZN4ezgl14press_zoom_fitEP10_GtkWidgetPv, symObjAddr: 0x920, symBinAddr: 0x10000FDF0, symSize: 0xD0 }
  - { offsetInCU: 0x1078, offset: 0x246B5, size: 0x8, addend: 0x0, symName: __ZN4ezgl13press_zoom_inEP10_GtkWidgetPv, symObjAddr: 0xA20, symBinAddr: 0x10000FEF0, symSize: 0x90 }
  - { offsetInCU: 0x10D9, offset: 0x24716, size: 0x8, addend: 0x0, symName: __ZN4ezgl14press_zoom_outEP10_GtkWidgetPv, symObjAddr: 0xAB0, symBinAddr: 0x10000FF80, symSize: 0x90 }
  - { offsetInCU: 0x113A, offset: 0x24777, size: 0x8, addend: 0x0, symName: __ZN4ezgl8press_upEP10_GtkWidgetPv, symObjAddr: 0xB40, symBinAddr: 0x100010010, symSize: 0x90 }
  - { offsetInCU: 0x119B, offset: 0x247D8, size: 0x8, addend: 0x0, symName: __ZN4ezgl10press_downEP10_GtkWidgetPv, symObjAddr: 0xBD0, symBinAddr: 0x1000100A0, symSize: 0x90 }
  - { offsetInCU: 0x1201, offset: 0x2483E, size: 0x8, addend: 0x0, symName: __ZN4ezgl10press_leftEP10_GtkWidgetPv, symObjAddr: 0xC60, symBinAddr: 0x100010130, symSize: 0x90 }
  - { offsetInCU: 0x1267, offset: 0x248A4, size: 0x8, addend: 0x0, symName: __ZN4ezgl11press_rightEP10_GtkWidgetPv, symObjAddr: 0xCF0, symBinAddr: 0x1000101C0, symSize: 0x90 }
  - { offsetInCU: 0x12CD, offset: 0x2490A, size: 0x8, addend: 0x0, symName: __ZN4ezgl13press_proceedEP10_GtkWidgetPv, symObjAddr: 0xD80, symBinAddr: 0x100010250, symSize: 0x30 }
  - { offsetInCU: 0x7965, offset: 0x2AFA2, size: 0x8, addend: 0x0, symName: __ZNK4ezgl6camera17get_initial_worldEv, symObjAddr: 0x9F0, symBinAddr: 0x10000FEC0, symSize: 0x30 }
  - { offsetInCU: 0x26, offset: 0x2BB2F, size: 0x8, addend: 0x0, symName: __ZN4ezgl6cameraC2ENS_9rectangleE, symObjAddr: 0x0, symBinAddr: 0x100010280, symSize: 0x110 }
  - { offsetInCU: 0x29DA, offset: 0x2E4E3, size: 0x8, addend: 0x0, symName: __ZN4ezglmiERKNS_7point2dES2_, symObjAddr: 0x2C0, symBinAddr: 0x100010460, symSize: 0x50 }
  - { offsetInCU: 0x2A14, offset: 0x2E51D, size: 0x8, addend: 0x0, symName: __ZN4ezglmlERKNS_7point2dES2_, symObjAddr: 0x3D0, symBinAddr: 0x100010570, symSize: 0x50 }
  - { offsetInCU: 0x2A4E, offset: 0x2E557, size: 0x8, addend: 0x0, symName: __ZN4ezglL21maintain_aspect_ratioERKNS_9rectangleEdd, symObjAddr: 0x9A0, symBinAddr: 0x100010A60, symSize: 0x170 }
  - { offsetInCU: 0x2AFC, offset: 0x2E605, size: 0x8, addend: 0x0, symName: __ZN4ezgl6cameraC2ENS_9rectangleE, symObjAddr: 0x0, symBinAddr: 0x100010280, symSize: 0x110 }
  - { offsetInCU: 0x2B36, offset: 0x2E63F, size: 0x8, addend: 0x0, symName: __ZN4ezgl6cameraC1ENS_9rectangleE, symObjAddr: 0x190, symBinAddr: 0x100010390, symSize: 0x50 }
  - { offsetInCU: 0x2B70, offset: 0x2E679, size: 0x8, addend: 0x0, symName: __ZNK4ezgl6camera16widget_to_screenENS_7point2dE, symObjAddr: 0x1E0, symBinAddr: 0x1000103E0, symSize: 0x80 }
  - { offsetInCU: 0x2BC2, offset: 0x2E6CB, size: 0x8, addend: 0x0, symName: __ZNK4ezgl6camera15widget_to_worldENS_7point2dE, symObjAddr: 0x310, symBinAddr: 0x1000104B0, symSize: 0xC0 }
  - { offsetInCU: 0x2C14, offset: 0x2E71D, size: 0x8, addend: 0x0, symName: __ZNK4ezgl6camera15world_to_screenENS_7point2dE, symObjAddr: 0x450, symBinAddr: 0x1000105C0, symSize: 0x240 }
  - { offsetInCU: 0x2C84, offset: 0x2E78D, size: 0x8, addend: 0x0, symName: __ZN4ezgl6camera9set_worldENS_9rectangleE, symObjAddr: 0x740, symBinAddr: 0x100010800, symSize: 0x40 }
  - { offsetInCU: 0x2CBA, offset: 0x2E7C3, size: 0x8, addend: 0x0, symName: __ZN4ezgl6camera20update_scale_factorsEv, symObjAddr: 0x780, symBinAddr: 0x100010840, symSize: 0x140 }
  - { offsetInCU: 0x2CE2, offset: 0x2E7EB, size: 0x8, addend: 0x0, symName: __ZN4ezgl6camera11reset_worldENS_9rectangleE, symObjAddr: 0x8C0, symBinAddr: 0x100010980, symSize: 0xE0 }
  - { offsetInCU: 0x2D18, offset: 0x2E821, size: 0x8, addend: 0x0, symName: __ZN4ezgl6camera13update_widgetEii, symObjAddr: 0xB90, symBinAddr: 0x100010BD0, symSize: 0xE0 }
  - { offsetInCU: 0x5C, offset: 0x2E8DA, size: 0x8, addend: 0x0, symName: __ZNSt3__1L19piecewise_constructE, symObjAddr: 0x547F, symBinAddr: 0x10001A307, symSize: 0x0 }
  - { offsetInCU: 0x27DC, offset: 0x3105A, size: 0x8, addend: 0x0, symName: __ZNSt3__110__function10__not_nullB8ue170006INS_6__bindIMN4ezgl6cameraEKFNS3_7point2dES5_EJRS4_RKNS_12placeholders4__phILi1EEEEEEEEbRKT_, symObjAddr: 0x1A00, symBinAddr: 0x1000125A0, symSize: 0x20 }
  - { offsetInCU: 0x280E, offset: 0x3108C, size: 0x8, addend: 0x0, symName: __ZNSt3__110__function10__not_nullB8ue170006INS_6__bindIMN4ezgl6cameraEKFNS3_7point2dES5_EJPS4_RKNS_12placeholders4__phILi1EEEEEEEEbRKT_, symObjAddr: 0x3880, symBinAddr: 0x100014330, symSize: 0x20 }
  - { offsetInCU: 0x5DD7, offset: 0x34655, size: 0x8, addend: 0x0, symName: __ZNSt3__14bindB8ue170006IMN4ezgl6cameraEKFNS1_7point2dES3_EJRS2_RKNS_12placeholders4__phILi1EEEEEENS_6__bindIT_JDpT0_EEEOSD_DpOSE_, symObjAddr: 0x370, symBinAddr: 0x100011020, symSize: 0x40 }
  - { offsetInCU: 0x5E3C, offset: 0x346BA, size: 0x8, addend: 0x0, symName: __ZNSt3__14bindB8ue170006IMN4ezgl6cameraEKFNS1_7point2dES3_EJPS2_RKNS_12placeholders4__phILi1EEEEEENS_6__bindIT_JDpT0_EEEOSD_DpOSE_, symObjAddr: 0x1360, symBinAddr: 0x100011FD0, symSize: 0x40 }
  - { offsetInCU: 0x651D, offset: 0x34D9B, size: 0x8, addend: 0x0, symName: __ZNSt3__116forward_as_tupleB8ue170006IJNS_6__bindIMN4ezgl6cameraEKFNS2_7point2dES4_EJRS3_RKNS_12placeholders4__phILi1EEEEEEEEENS_5tupleIJDpOT_EEESH_, symObjAddr: 0x2220, symBinAddr: 0x100012D40, symSize: 0x30 }
  - { offsetInCU: 0x6556, offset: 0x34DD4, size: 0x8, addend: 0x0, symName: __ZNSt3__116forward_as_tupleB8ue170006IJNS_9allocatorINS_6__bindIMN4ezgl6cameraEKFNS3_7point2dES5_EJRS4_RKNS_12placeholders4__phILi1EEEEEEEEEEENS_5tupleIJDpOT_EEESJ_, symObjAddr: 0x2250, symBinAddr: 0x100012D70, symSize: 0x30 }
  - { offsetInCU: 0x65B9, offset: 0x34E37, size: 0x8, addend: 0x0, symName: __ZNSt3__13getB8ue170006ILm0EJONS_6__bindIMN4ezgl6cameraEKFNS2_7point2dES4_EJRS3_RKNS_12placeholders4__phILi1EEEEEEEEERNS_13tuple_elementIXT_ENS_5tupleIJDpT0_EEEE4typeERSJ_, symObjAddr: 0x2520, symBinAddr: 0x100013040, symSize: 0x20 }
  - { offsetInCU: 0x65FB, offset: 0x34E79, size: 0x8, addend: 0x0, symName: __ZNSt3__13getB8ue170006ILm0EJONS_9allocatorINS_6__bindIMN4ezgl6cameraEKFNS3_7point2dES5_EJRS4_RKNS_12placeholders4__phILi1EEEEEEEEEEERNS_13tuple_elementIXT_ENS_5tupleIJDpT0_EEEE4typeERSL_, symObjAddr: 0x2560, symBinAddr: 0x100013080, symSize: 0x20 }
  - { offsetInCU: 0x67C9, offset: 0x35047, size: 0x8, addend: 0x0, symName: __ZNSt3__116forward_as_tupleB8ue170006IJRKNS_6__bindIMN4ezgl6cameraEKFNS2_7point2dES4_EJRS3_RKNS_12placeholders4__phILi1EEEEEEEEENS_5tupleIJDpOT_EEESJ_, symObjAddr: 0x28C0, symBinAddr: 0x1000133E0, symSize: 0x30 }
  - { offsetInCU: 0x6817, offset: 0x35095, size: 0x8, addend: 0x0, symName: __ZNSt3__13getB8ue170006ILm0EJRKNS_6__bindIMN4ezgl6cameraEKFNS2_7point2dES4_EJRS3_RKNS_12placeholders4__phILi1EEEEEEEEERNS_13tuple_elementIXT_ENS_5tupleIJDpT0_EEEE4typeERSK_, symObjAddr: 0x2A90, symBinAddr: 0x1000135B0, symSize: 0x20 }
  - { offsetInCU: 0x6859, offset: 0x350D7, size: 0x8, addend: 0x0, symName: __ZNSt3__116forward_as_tupleB8ue170006IJRKNS_9allocatorINS_6__bindIMN4ezgl6cameraEKFNS3_7point2dES5_EJRS4_RKNS_12placeholders4__phILi1EEEEEEEEEEENS_5tupleIJDpOT_EEESL_, symObjAddr: 0x2DF0, symBinAddr: 0x1000138A0, symSize: 0x30 }
  - { offsetInCU: 0x68A7, offset: 0x35125, size: 0x8, addend: 0x0, symName: __ZNSt3__13getB8ue170006ILm0EJRKNS_9allocatorINS_6__bindIMN4ezgl6cameraEKFNS3_7point2dES5_EJRS4_RKNS_12placeholders4__phILi1EEEEEEEEEEERNS_13tuple_elementIXT_ENS_5tupleIJDpT0_EEEE4typeERSM_, symObjAddr: 0x2FA0, symBinAddr: 0x100013A50, symSize: 0x20 }
  - { offsetInCU: 0x6959, offset: 0x351D7, size: 0x8, addend: 0x0, symName: __ZNSt3__18__invokeB8ue170006IRNS_6__bindIMN4ezgl6cameraEKFNS2_7point2dES4_EJRS3_RKNS_12placeholders4__phILi1EEEEEEJS4_EEEDTclclsr3stdE7declvalIT_EEspclsr3stdE7declvalIT0_EEEEOSF_DpOSG_, symObjAddr: 0x3090, symBinAddr: 0x100013B40, symSize: 0x40 }
  - { offsetInCU: 0x6A04, offset: 0x35282, size: 0x8, addend: 0x0, symName: __ZNSt3__115__apply_functorB8ue170006IMN4ezgl6cameraEKFNS1_7point2dES3_ENS_5tupleIJS2_NS_12placeholders4__phILi1EEEEEEJLm0ELm1EENS6_IJOS3_EEEEENS_13__bind_returnIT_T0_T2_Xsr22__is_valid_bind_returnISE_SF_SG_EE5valueEE4typeERSE_RSF_NS_15__tuple_indicesIJXspT1_EEEEOSG_, symObjAddr: 0x3130, symBinAddr: 0x100013BE0, symSize: 0x80 }
  - { offsetInCU: 0x6A88, offset: 0x35306, size: 0x8, addend: 0x0, symName: __ZNSt3__18__invokeB8ue170006IRMN4ezgl6cameraEKFNS1_7point2dES3_ERS2_JS3_EvEEDTcldsclsr3stdE7declvalIT0_EEclsr3stdE7declvalIT_EEspclsr3stdE7declvalIT1_EEEEOS9_OS8_DpOSA_, symObjAddr: 0x31E0, symBinAddr: 0x100013C90, symSize: 0xA0 }
  - { offsetInCU: 0x6AF2, offset: 0x35370, size: 0x8, addend: 0x0, symName: __ZNSt3__14__muB8ue170006IN4ezgl6cameraENS_5tupleIJONS1_7point2dEEEEEENS_9enable_ifIXaaaantsr18is_bind_expressionIT_EE5valueeqsr14is_placeholderIS8_EE5valueLi0Entsr22__is_reference_wrapperIS8_EE5valueERS8_E4typeES9_RT0_, symObjAddr: 0x3280, symBinAddr: 0x100013D30, symSize: 0x20 }
  - { offsetInCU: 0x6B3B, offset: 0x353B9, size: 0x8, addend: 0x0, symName: __ZNSt3__13getB8ue170006ILm0EJN4ezgl6cameraENS_12placeholders4__phILi1EEEEEERNS_13tuple_elementIXT_ENS_5tupleIJDpT0_EEEE4typeERSA_, symObjAddr: 0x32A0, symBinAddr: 0x100013D50, symSize: 0x20 }
  - { offsetInCU: 0x6B83, offset: 0x35401, size: 0x8, addend: 0x0, symName: __ZNSt3__14__muB8ue170006INS_12placeholders4__phILi1EEENS_5tupleIJON4ezgl7point2dEEEEEENS_9enable_ifIXltLi0Esr14is_placeholderIT_EE5valueENS_12__mu_return2IXltLi0Esr14is_placeholderISA_EE5valueESA_T0_E4typeEE4typeERSA_RSC_, symObjAddr: 0x32C0, symBinAddr: 0x100013D70, symSize: 0x30 }
  - { offsetInCU: 0x6BDA, offset: 0x35458, size: 0x8, addend: 0x0, symName: __ZNSt3__13getB8ue170006ILm1EJN4ezgl6cameraENS_12placeholders4__phILi1EEEEEERNS_13tuple_elementIXT_ENS_5tupleIJDpT0_EEEE4typeERSA_, symObjAddr: 0x32F0, symBinAddr: 0x100013DA0, symSize: 0x20 }
  - { offsetInCU: 0x6C22, offset: 0x354A0, size: 0x8, addend: 0x0, symName: __ZNSt3__13getB8ue170006ILm0EJON4ezgl7point2dEEEERNS_13tuple_elementIXT_ENS_5tupleIJDpT0_EEEE4typeERS8_, symObjAddr: 0x3320, symBinAddr: 0x100013DD0, symSize: 0x20 }
  - { offsetInCU: 0x6DF7, offset: 0x35675, size: 0x8, addend: 0x0, symName: __ZNSt3__116forward_as_tupleB8ue170006IJNS_6__bindIMN4ezgl6cameraEKFNS2_7point2dES4_EJPS3_RKNS_12placeholders4__phILi1EEEEEEEEENS_5tupleIJDpOT_EEESH_, symObjAddr: 0x3D50, symBinAddr: 0x100014800, symSize: 0x30 }
  - { offsetInCU: 0x6E30, offset: 0x356AE, size: 0x8, addend: 0x0, symName: __ZNSt3__116forward_as_tupleB8ue170006IJNS_9allocatorINS_6__bindIMN4ezgl6cameraEKFNS3_7point2dES5_EJPS4_RKNS_12placeholders4__phILi1EEEEEEEEEEENS_5tupleIJDpOT_EEESJ_, symObjAddr: 0x3D80, symBinAddr: 0x100014830, symSize: 0x30 }
  - { offsetInCU: 0x6E93, offset: 0x35711, size: 0x8, addend: 0x0, symName: __ZNSt3__13getB8ue170006ILm0EJONS_6__bindIMN4ezgl6cameraEKFNS2_7point2dES4_EJPS3_RKNS_12placeholders4__phILi1EEEEEEEEERNS_13tuple_elementIXT_ENS_5tupleIJDpT0_EEEE4typeERSJ_, symObjAddr: 0x4060, symBinAddr: 0x100014B10, symSize: 0x20 }
  - { offsetInCU: 0x6ED5, offset: 0x35753, size: 0x8, addend: 0x0, symName: __ZNSt3__13getB8ue170006ILm0EJONS_9allocatorINS_6__bindIMN4ezgl6cameraEKFNS3_7point2dES5_EJPS4_RKNS_12placeholders4__phILi1EEEEEEEEEEERNS_13tuple_elementIXT_ENS_5tupleIJDpT0_EEEE4typeERSL_, symObjAddr: 0x40A0, symBinAddr: 0x100014B50, symSize: 0x20 }
  - { offsetInCU: 0x73FB, offset: 0x35C79, size: 0x8, addend: 0x0, symName: __ZNSt3__116forward_as_tupleB8ue170006IJRKNS_6__bindIMN4ezgl6cameraEKFNS2_7point2dES4_EJPS3_RKNS_12placeholders4__phILi1EEEEEEEEENS_5tupleIJDpOT_EEESJ_, symObjAddr: 0x4590, symBinAddr: 0x100015040, symSize: 0x30 }
  - { offsetInCU: 0x7449, offset: 0x35CC7, size: 0x8, addend: 0x0, symName: __ZNSt3__13getB8ue170006ILm0EJRKNS_6__bindIMN4ezgl6cameraEKFNS2_7point2dES4_EJPS3_RKNS_12placeholders4__phILi1EEEEEEEEERNS_13tuple_elementIXT_ENS_5tupleIJDpT0_EEEE4typeERSK_, symObjAddr: 0x4770, symBinAddr: 0x100015220, symSize: 0x20 }
  - { offsetInCU: 0x748B, offset: 0x35D09, size: 0x8, addend: 0x0, symName: __ZNSt3__116forward_as_tupleB8ue170006IJRKNS_9allocatorINS_6__bindIMN4ezgl6cameraEKFNS3_7point2dES5_EJPS4_RKNS_12placeholders4__phILi1EEEEEEEEEEENS_5tupleIJDpOT_EEESL_, symObjAddr: 0x4A60, symBinAddr: 0x100015510, symSize: 0x30 }
  - { offsetInCU: 0x74D9, offset: 0x35D57, size: 0x8, addend: 0x0, symName: __ZNSt3__13getB8ue170006ILm0EJRKNS_9allocatorINS_6__bindIMN4ezgl6cameraEKFNS3_7point2dES5_EJPS4_RKNS_12placeholders4__phILi1EEEEEEEEEEERNS_13tuple_elementIXT_ENS_5tupleIJDpT0_EEEE4typeERSM_, symObjAddr: 0x4C10, symBinAddr: 0x1000156C0, symSize: 0x20 }
  - { offsetInCU: 0x751B, offset: 0x35D99, size: 0x8, addend: 0x0, symName: __ZNSt3__18__invokeB8ue170006IRNS_6__bindIMN4ezgl6cameraEKFNS2_7point2dES4_EJPS3_RKNS_12placeholders4__phILi1EEEEEEJS4_EEEDTclclsr3stdE7declvalIT_EEspclsr3stdE7declvalIT0_EEEEOSF_DpOSG_, symObjAddr: 0x4D00, symBinAddr: 0x1000157B0, symSize: 0x40 }
  - { offsetInCU: 0x75A2, offset: 0x35E20, size: 0x8, addend: 0x0, symName: __ZNSt3__115__apply_functorB8ue170006IMN4ezgl6cameraEKFNS1_7point2dES3_ENS_5tupleIJPS2_NS_12placeholders4__phILi1EEEEEEJLm0ELm1EENS6_IJOS3_EEEEENS_13__bind_returnIT_T0_T2_Xsr22__is_valid_bind_returnISF_SG_SH_EE5valueEE4typeERSF_RSG_NS_15__tuple_indicesIJXspT1_EEEEOSH_, symObjAddr: 0x4DA0, symBinAddr: 0x100015850, symSize: 0x80 }
  - { offsetInCU: 0x7626, offset: 0x35EA4, size: 0x8, addend: 0x0, symName: __ZNSt3__18__invokeB8ue170006IRMN4ezgl6cameraEKFNS1_7point2dES3_ERPS2_JS3_EvEEDTcldsdeclsr3stdE7declvalIT0_EEclsr3stdE7declvalIT_EEspclsr3stdE7declvalIT1_EEEEOSA_OS9_DpOSB_, symObjAddr: 0x4E20, symBinAddr: 0x1000158D0, symSize: 0xA0 }
  - { offsetInCU: 0x7690, offset: 0x35F0E, size: 0x8, addend: 0x0, symName: __ZNSt3__14__muB8ue170006IPN4ezgl6cameraENS_5tupleIJONS1_7point2dEEEEEENS_9enable_ifIXaaaantsr18is_bind_expressionIT_EE5valueeqsr14is_placeholderIS9_EE5valueLi0Entsr22__is_reference_wrapperIS9_EE5valueERS9_E4typeESA_RT0_, symObjAddr: 0x4EC0, symBinAddr: 0x100015970, symSize: 0x20 }
  - { offsetInCU: 0x76D9, offset: 0x35F57, size: 0x8, addend: 0x0, symName: __ZNSt3__13getB8ue170006ILm0EJPN4ezgl6cameraENS_12placeholders4__phILi1EEEEEERNS_13tuple_elementIXT_ENS_5tupleIJDpT0_EEEE4typeERSB_, symObjAddr: 0x4EE0, symBinAddr: 0x100015990, symSize: 0x20 }
  - { offsetInCU: 0x7721, offset: 0x35F9F, size: 0x8, addend: 0x0, symName: __ZNSt3__13getB8ue170006ILm1EJPN4ezgl6cameraENS_12placeholders4__phILi1EEEEEERNS_13tuple_elementIXT_ENS_5tupleIJDpT0_EEEE4typeERSB_, symObjAddr: 0x4F00, symBinAddr: 0x1000159B0, symSize: 0x20 }
  - { offsetInCU: 0x80C1, offset: 0x3693F, size: 0x8, addend: 0x0, symName: __ZN4ezglL14create_contextEP14_cairo_surface, symObjAddr: 0x330, symBinAddr: 0x100010FE0, symSize: 0x40 }
  - { offsetInCU: 0x80FC, offset: 0x3697A, size: 0x8, addend: 0x0, symName: __ZN4ezglL14create_surfaceEP10_GtkWidget, symObjAddr: 0xBE0, symBinAddr: 0x100011890, symSize: 0x70 }
  - { offsetInCU: 0xA8A0, offset: 0x3911E, size: 0x8, addend: 0x0, symName: __ZN4ezgl6canvas9print_pdfEPKcii, symObjAddr: 0x0, symBinAddr: 0x100010CB0, symSize: 0x330 }
  - { offsetInCU: 0xA959, offset: 0x391D7, size: 0x8, addend: 0x0, symName: __ZNSt3__18functionIFN4ezgl7point2dES2_EEC1INS_6__bindIMNS1_6cameraEKFS2_S2_EJRS7_RKNS_12placeholders4__phILi1EEEEEEvEET_, symObjAddr: 0x3B0, symBinAddr: 0x100011060, symSize: 0x40 }
  - { offsetInCU: 0xA99E, offset: 0x3921C, size: 0x8, addend: 0x0, symName: __ZNSt3__18functionIFN4ezgl7point2dES2_EED1Ev, symObjAddr: 0x3F0, symBinAddr: 0x1000110A0, symSize: 0x20 }
  - { offsetInCU: 0xA9C9, offset: 0x39247, size: 0x8, addend: 0x0, symName: __ZN4ezgl6canvas9print_svgEPKcii, symObjAddr: 0x410, symBinAddr: 0x1000110C0, symSize: 0x330 }
  - { offsetInCU: 0xAA81, offset: 0x392FF, size: 0x8, addend: 0x0, symName: __ZN4ezgl6canvas9print_pngEPKcii, symObjAddr: 0x740, symBinAddr: 0x1000113F0, symSize: 0x340 }
  - { offsetInCU: 0xAB3A, offset: 0x393B8, size: 0x8, addend: 0x0, symName: __ZN4ezgl6canvas15configure_eventEP10_GtkWidgetP18_GdkEventConfigurePv, symObjAddr: 0xA80, symBinAddr: 0x100011730, symSize: 0x160 }
  - { offsetInCU: 0xABA2, offset: 0x39420, size: 0x8, addend: 0x0, symName: __ZNK4ezgl6canvas5widthEv, symObjAddr: 0xC50, symBinAddr: 0x100011900, symSize: 0x30 }
  - { offsetInCU: 0xABCB, offset: 0x39449, size: 0x8, addend: 0x0, symName: __ZNK4ezgl6canvas6heightEv, symObjAddr: 0xC80, symBinAddr: 0x100011930, symSize: 0x30 }
  - { offsetInCU: 0xABF4, offset: 0x39472, size: 0x8, addend: 0x0, symName: __ZN4ezgl6canvas6redrawEv, symObjAddr: 0xCB0, symBinAddr: 0x100011960, symSize: 0x210 }
  - { offsetInCU: 0xAC36, offset: 0x394B4, size: 0x8, addend: 0x0, symName: __ZN4ezgl6canvas12draw_surfaceEP10_GtkWidgetP6_cairoPv, symObjAddr: 0xEC0, symBinAddr: 0x100011B70, symSize: 0x50 }
  - { offsetInCU: 0xAC82, offset: 0x39500, size: 0x8, addend: 0x0, symName: __ZN4ezgl6canvasC2ENSt3__112basic_stringIcNS1_11char_traitsIcEENS1_9allocatorIcEEEEPFvPNS_8rendererEENS_9rectangleENS_5colorE, symObjAddr: 0xF10, symBinAddr: 0x100011BC0, symSize: 0xE0 }
  - { offsetInCU: 0xACE7, offset: 0x39565, size: 0x8, addend: 0x0, symName: __ZN4ezgl6canvasC1ENSt3__112basic_stringIcNS1_11char_traitsIcEENS1_9allocatorIcEEEEPFvPNS_8rendererEENS_9rectangleENS_5colorE, symObjAddr: 0x1020, symBinAddr: 0x100011CA0, symSize: 0x60 }
  - { offsetInCU: 0xAD4C, offset: 0x395CA, size: 0x8, addend: 0x0, symName: __ZN4ezgl6canvasD2Ev, symObjAddr: 0x1080, symBinAddr: 0x100011D00, symSize: 0xD0 }
  - { offsetInCU: 0xAD78, offset: 0x395F6, size: 0x8, addend: 0x0, symName: __ZN4ezgl6canvasD1Ev, symObjAddr: 0x1160, symBinAddr: 0x100011DD0, symSize: 0x20 }
  - { offsetInCU: 0xADA4, offset: 0x39622, size: 0x8, addend: 0x0, symName: __ZN4ezgl6canvas10initializeEP10_GtkWidget, symObjAddr: 0x1180, symBinAddr: 0x100011DF0, symSize: 0x1E0 }
  - { offsetInCU: 0xADDC, offset: 0x3965A, size: 0x8, addend: 0x0, symName: __ZNSt3__18functionIFN4ezgl7point2dES2_EEC1INS_6__bindIMNS1_6cameraEKFS2_S2_EJPS7_RKNS_12placeholders4__phILi1EEEEEEvEET_, symObjAddr: 0x13A0, symBinAddr: 0x100012010, symSize: 0x40 }
  - { offsetInCU: 0xAE21, offset: 0x3969F, size: 0x8, addend: 0x0, symName: __ZN4ezgl6canvas25create_animation_rendererEv, symObjAddr: 0x13E0, symBinAddr: 0x100012050, symSize: 0x1C0 }
  - { offsetInCU: 0xAE64, offset: 0x396E2, size: 0x8, addend: 0x0, symName: __ZNSt3__16__bindIMN4ezgl6cameraEKFNS1_7point2dES3_EJRS2_RKNS_12placeholders4__phILi1EEEEEC1B8ue170006IS5_JS6_SB_EvEEOT_DpOT0_, symObjAddr: 0x1670, symBinAddr: 0x100012210, symSize: 0x40 }
  - { offsetInCU: 0xAED5, offset: 0x39753, size: 0x8, addend: 0x0, symName: __ZNSt3__16__bindIMN4ezgl6cameraEKFNS1_7point2dES3_EJRS2_RKNS_12placeholders4__phILi1EEEEEC2B8ue170006IS5_JS6_SB_EvEEOT_DpOT0_, symObjAddr: 0x16B0, symBinAddr: 0x100012250, symSize: 0x50 }
  - { offsetInCU: 0xAF46, offset: 0x397C4, size: 0x8, addend: 0x0, symName: __ZNSt3__15tupleIJN4ezgl6cameraENS_12placeholders4__phILi1EEEEEC1B8ue170006IJRS2_RKS5_ELi0EEEDpOT_, symObjAddr: 0x1700, symBinAddr: 0x1000122A0, symSize: 0x30 }
  - { offsetInCU: 0xAFA4, offset: 0x39822, size: 0x8, addend: 0x0, symName: __ZNSt3__15tupleIJN4ezgl6cameraENS_12placeholders4__phILi1EEEEEC2B8ue170006IJRS2_RKS5_ELi0EEEDpOT_, symObjAddr: 0x1730, symBinAddr: 0x1000122D0, symSize: 0x30 }
  - { offsetInCU: 0xB002, offset: 0x39880, size: 0x8, addend: 0x0, symName: __ZNSt3__112__tuple_implINS_15__tuple_indicesIJLm0ELm1EEEEJN4ezgl6cameraENS_12placeholders4__phILi1EEEEEC1B8ue170006IJLm0ELm1EEJS4_S7_EJEJEJRS4_RKS7_EEENS1_IJXspT_EEEENS_13__tuple_typesIJDpT0_EEENS1_IJXspT1_EEEENSE_IJDpT2_EEEDpOT3_, symObjAddr: 0x1760, symBinAddr: 0x100012300, symSize: 0x30 }
  - { offsetInCU: 0xB0B2, offset: 0x39930, size: 0x8, addend: 0x0, symName: __ZNSt3__112__tuple_implINS_15__tuple_indicesIJLm0ELm1EEEEJN4ezgl6cameraENS_12placeholders4__phILi1EEEEEC2B8ue170006IJLm0ELm1EEJS4_S7_EJEJEJRS4_RKS7_EEENS1_IJXspT_EEEENS_13__tuple_typesIJDpT0_EEENS1_IJXspT1_EEEENSE_IJDpT2_EEEDpOT3_, symObjAddr: 0x1790, symBinAddr: 0x100012330, symSize: 0x40 }
  - { offsetInCU: 0xB162, offset: 0x399E0, size: 0x8, addend: 0x0, symName: __ZNSt3__112__tuple_leafILm0EN4ezgl6cameraELb0EEC2B8ue170006IRS2_vEEOT_, symObjAddr: 0x17D0, symBinAddr: 0x100012370, symSize: 0x30 }
  - { offsetInCU: 0xB1A5, offset: 0x39A23, size: 0x8, addend: 0x0, symName: __ZNSt3__112__tuple_leafILm1ENS_12placeholders4__phILi1EEELb1EEC2B8ue170006IRKS3_vEEOT_, symObjAddr: 0x1800, symBinAddr: 0x1000123A0, symSize: 0x10 }
  - { offsetInCU: 0xB1E8, offset: 0x39A66, size: 0x8, addend: 0x0, symName: __ZNSt3__18functionIFN4ezgl7point2dES2_EEC2INS_6__bindIMNS1_6cameraEKFS2_S2_EJRS7_RKNS_12placeholders4__phILi1EEEEEEvEET_, symObjAddr: 0x1810, symBinAddr: 0x1000123B0, symSize: 0x20 }
  - { offsetInCU: 0xB22D, offset: 0x39AAB, size: 0x8, addend: 0x0, symName: __ZNSt3__110__function12__value_funcIFN4ezgl7point2dES3_EEC1B8ue170006INS_6__bindIMNS2_6cameraEKFS3_S3_EJRS8_RKNS_12placeholders4__phILi1EEEEEEvEEOT_, symObjAddr: 0x1830, symBinAddr: 0x1000123D0, symSize: 0x40 }
  - { offsetInCU: 0xB270, offset: 0x39AEE, size: 0x8, addend: 0x0, symName: __ZNSt3__19allocatorINS_6__bindIMN4ezgl6cameraEKFNS2_7point2dES4_EJRS3_RKNS_12placeholders4__phILi1EEEEEEEC1B8ue170006Ev, symObjAddr: 0x1870, symBinAddr: 0x100012410, symSize: 0x20 }
  - { offsetInCU: 0xB29A, offset: 0x39B18, size: 0x8, addend: 0x0, symName: __ZNSt3__110__function12__value_funcIFN4ezgl7point2dES3_EEC1B8ue170006INS_6__bindIMNS2_6cameraEKFS3_S3_EJRS8_RKNS_12placeholders4__phILi1EEEEEENS_9allocatorISH_EEEEOT_RKT0_, symObjAddr: 0x1890, symBinAddr: 0x100012430, symSize: 0x30 }
  - { offsetInCU: 0xB2F4, offset: 0x39B72, size: 0x8, addend: 0x0, symName: __ZNSt3__19allocatorINS_6__bindIMN4ezgl6cameraEKFNS2_7point2dES4_EJRS3_RKNS_12placeholders4__phILi1EEEEEEEC2B8ue170006Ev, symObjAddr: 0x18C0, symBinAddr: 0x100012460, symSize: 0x20 }
  - { offsetInCU: 0xB31E, offset: 0x39B9C, size: 0x8, addend: 0x0, symName: __ZNSt3__116__non_trivial_ifILb1ENS_9allocatorINS_6__bindIMN4ezgl6cameraEKFNS3_7point2dES5_EJRS4_RKNS_12placeholders4__phILi1EEEEEEEEEC2B8ue170006Ev, symObjAddr: 0x18E0, symBinAddr: 0x100012480, symSize: 0x10 }
  - { offsetInCU: 0xB348, offset: 0x39BC6, size: 0x8, addend: 0x0, symName: __ZNSt3__110__function12__value_funcIFN4ezgl7point2dES3_EEC2B8ue170006INS_6__bindIMNS2_6cameraEKFS3_S3_EJRS8_RKNS_12placeholders4__phILi1EEEEEENS_9allocatorISH_EEEEOT_RKT0_, symObjAddr: 0x18F0, symBinAddr: 0x100012490, symSize: 0x110 }
  - { offsetInCU: 0xB3FB, offset: 0x39C79, size: 0x8, addend: 0x0, symName: __ZNSt3__19allocatorINS_10__function6__funcINS_6__bindIMN4ezgl6cameraEKFNS4_7point2dES6_EJRS5_RKNS_12placeholders4__phILi1EEEEEENS0_ISF_EEFS6_S6_EEEEC1B8ue170006ISF_EERKNS0_IT_EE, symObjAddr: 0x1A20, symBinAddr: 0x1000125C0, symSize: 0x30 }
  - { offsetInCU: 0xB439, offset: 0x39CB7, size: 0x8, addend: 0x0, symName: __ZNSt3__19allocatorINS_10__function6__funcINS_6__bindIMN4ezgl6cameraEKFNS4_7point2dES6_EJRS5_RKNS_12placeholders4__phILi1EEEEEENS0_ISF_EEFS6_S6_EEEE8allocateB8ue170006Em, symObjAddr: 0x1A50, symBinAddr: 0x1000125F0, symSize: 0x50 }
  - { offsetInCU: 0xB47C, offset: 0x39CFA, size: 0x8, addend: 0x0, symName: __ZNSt3__122__allocator_destructorINS_9allocatorINS_10__function6__funcINS_6__bindIMN4ezgl6cameraEKFNS5_7point2dES7_EJRS6_RKNS_12placeholders4__phILi1EEEEEENS1_ISG_EEFS7_S7_EEEEEEC1B8ue170006ERSK_m, symObjAddr: 0x1AA0, symBinAddr: 0x100012640, symSize: 0x30 }
  - { offsetInCU: 0xB550, offset: 0x39DCE, size: 0x8, addend: 0x0, symName: __ZNSt3__110unique_ptrINS_10__function6__baseIFN4ezgl7point2dES4_EEENS_22__allocator_destructorINS_9allocatorINS1_6__funcINS_6__bindIMNS3_6cameraEKFS4_S4_EJRSB_RKNS_12placeholders4__phILi1EEEEEENS8_ISK_EES5_EEEEEEEC1B8ue170006ILb1EvEEPSM_NS_16__dependent_typeINS_27__unique_ptr_deleter_sfinaeISO_EEXT_EE20__good_rval_ref_typeE, symObjAddr: 0x1AD0, symBinAddr: 0x100012670, symSize: 0x30 }
  - { offsetInCU: 0xB5A1, offset: 0x39E1F, size: 0x8, addend: 0x0, symName: __ZNKSt3__110unique_ptrINS_10__function6__baseIFN4ezgl7point2dES4_EEENS_22__allocator_destructorINS_9allocatorINS1_6__funcINS_6__bindIMNS3_6cameraEKFS4_S4_EJRSB_RKNS_12placeholders4__phILi1EEEEEENS8_ISK_EES5_EEEEEEE3getB8ue170006Ev, symObjAddr: 0x1B00, symBinAddr: 0x1000126A0, symSize: 0x20 }
  - { offsetInCU: 0xB5C7, offset: 0x39E45, size: 0x8, addend: 0x0, symName: __ZNSt3__110__function6__funcINS_6__bindIMN4ezgl6cameraEKFNS3_7point2dES5_EJRS4_RKNS_12placeholders4__phILi1EEEEEENS_9allocatorISE_EEFS5_S5_EEC1B8ue170006EOSE_OSG_, symObjAddr: 0x1B20, symBinAddr: 0x1000126C0, symSize: 0x30 }
  - { offsetInCU: 0xB60F, offset: 0x39E8D, size: 0x8, addend: 0x0, symName: __ZNSt3__110unique_ptrINS_10__function6__baseIFN4ezgl7point2dES4_EEENS_22__allocator_destructorINS_9allocatorINS1_6__funcINS_6__bindIMNS3_6cameraEKFS4_S4_EJRSB_RKNS_12placeholders4__phILi1EEEEEENS8_ISK_EES5_EEEEEEE7releaseB8ue170006Ev, symObjAddr: 0x1B50, symBinAddr: 0x1000126F0, symSize: 0x40 }
  - { offsetInCU: 0xB644, offset: 0x39EC2, size: 0x8, addend: 0x0, symName: __ZNSt3__110unique_ptrINS_10__function6__baseIFN4ezgl7point2dES4_EEENS_22__allocator_destructorINS_9allocatorINS1_6__funcINS_6__bindIMNS3_6cameraEKFS4_S4_EJRSB_RKNS_12placeholders4__phILi1EEEEEENS8_ISK_EES5_EEEEEEED1B8ue170006Ev, symObjAddr: 0x1B90, symBinAddr: 0x100012730, symSize: 0x20 }
  - { offsetInCU: 0xB66E, offset: 0x39EEC, size: 0x8, addend: 0x0, symName: __ZNSt3__19allocatorINS_10__function6__funcINS_6__bindIMN4ezgl6cameraEKFNS4_7point2dES6_EJRS5_RKNS_12placeholders4__phILi1EEEEEENS0_ISF_EEFS6_S6_EEEEC2B8ue170006ISF_EERKNS0_IT_EE, symObjAddr: 0x1BB0, symBinAddr: 0x100012750, symSize: 0x20 }
  - { offsetInCU: 0xB6AC, offset: 0x39F2A, size: 0x8, addend: 0x0, symName: __ZNSt3__116__non_trivial_ifILb1ENS_9allocatorINS_10__function6__funcINS_6__bindIMN4ezgl6cameraEKFNS5_7point2dES7_EJRS6_RKNS_12placeholders4__phILi1EEEEEENS1_ISG_EEFS7_S7_EEEEEEC2B8ue170006Ev, symObjAddr: 0x1BD0, symBinAddr: 0x100012770, symSize: 0x10 }
  - { offsetInCU: 0xB6E0, offset: 0x39F5E, size: 0x8, addend: 0x0, symName: __ZNSt3__116allocator_traitsINS_9allocatorINS_10__function6__funcINS_6__bindIMN4ezgl6cameraEKFNS5_7point2dES7_EJRS6_RKNS_12placeholders4__phILi1EEEEEENS1_ISG_EEFS7_S7_EEEEEE8max_sizeB8ue170006ISK_vEEmRKSK_, symObjAddr: 0x1BE0, symBinAddr: 0x100012780, symSize: 0x20 }
  - { offsetInCU: 0xB70E, offset: 0x39F8C, size: 0x8, addend: 0x0, symName: __ZNKSt3__19allocatorINS_10__function6__funcINS_6__bindIMN4ezgl6cameraEKFNS4_7point2dES6_EJRS5_RKNS_12placeholders4__phILi1EEEEEENS0_ISF_EEFS6_S6_EEEE8max_sizeB8ue170006Ev, symObjAddr: 0x1C60, symBinAddr: 0x1000127A0, symSize: 0x20 }
  - { offsetInCU: 0xB734, offset: 0x39FB2, size: 0x8, addend: 0x0, symName: __ZNSt3__122__allocator_destructorINS_9allocatorINS_10__function6__funcINS_6__bindIMN4ezgl6cameraEKFNS5_7point2dES7_EJRS6_RKNS_12placeholders4__phILi1EEEEEENS1_ISG_EEFS7_S7_EEEEEEC2B8ue170006ERSK_m, symObjAddr: 0x1CA0, symBinAddr: 0x1000127C0, symSize: 0x30 }
  - { offsetInCU: 0xB77A, offset: 0x39FF8, size: 0x8, addend: 0x0, symName: __ZNSt3__110unique_ptrINS_10__function6__baseIFN4ezgl7point2dES4_EEENS_22__allocator_destructorINS_9allocatorINS1_6__funcINS_6__bindIMNS3_6cameraEKFS4_S4_EJRSB_RKNS_12placeholders4__phILi1EEEEEENS8_ISK_EES5_EEEEEEEC2B8ue170006ILb1EvEEPSM_NS_16__dependent_typeINS_27__unique_ptr_deleter_sfinaeISO_EEXT_EE20__good_rval_ref_typeE, symObjAddr: 0x1CD0, symBinAddr: 0x1000127F0, symSize: 0x40 }
  - { offsetInCU: 0xB7CB, offset: 0x3A049, size: 0x8, addend: 0x0, symName: __ZNSt3__117__compressed_pairIPNS_10__function6__funcINS_6__bindIMN4ezgl6cameraEKFNS4_7point2dES6_EJRS5_RKNS_12placeholders4__phILi1EEEEEENS_9allocatorISF_EEFS6_S6_EEENS_22__allocator_destructorINSG_ISJ_EEEEEC1B8ue170006IRSK_SN_EEOT_OT0_, symObjAddr: 0x1D10, symBinAddr: 0x100012830, symSize: 0x30 }
  - { offsetInCU: 0xB823, offset: 0x3A0A1, size: 0x8, addend: 0x0, symName: __ZNSt3__117__compressed_pairIPNS_10__function6__funcINS_6__bindIMN4ezgl6cameraEKFNS4_7point2dES6_EJRS5_RKNS_12placeholders4__phILi1EEEEEENS_9allocatorISF_EEFS6_S6_EEENS_22__allocator_destructorINSG_ISJ_EEEEEC2B8ue170006IRSK_SN_EEOT_OT0_, symObjAddr: 0x1D40, symBinAddr: 0x100012860, symSize: 0x40 }
  - { offsetInCU: 0xB87B, offset: 0x3A0F9, size: 0x8, addend: 0x0, symName: __ZNSt3__122__compressed_pair_elemIPNS_10__function6__funcINS_6__bindIMN4ezgl6cameraEKFNS4_7point2dES6_EJRS5_RKNS_12placeholders4__phILi1EEEEEENS_9allocatorISF_EEFS6_S6_EEELi0ELb0EEC2B8ue170006IRSK_vEEOT_, symObjAddr: 0x1D80, symBinAddr: 0x1000128A0, symSize: 0x20 }
  - { offsetInCU: 0xB8BD, offset: 0x3A13B, size: 0x8, addend: 0x0, symName: __ZNSt3__122__compressed_pair_elemINS_22__allocator_destructorINS_9allocatorINS_10__function6__funcINS_6__bindIMN4ezgl6cameraEKFNS6_7point2dES8_EJRS7_RKNS_12placeholders4__phILi1EEEEEENS2_ISH_EEFS8_S8_EEEEEEELi1ELb0EEC2B8ue170006ISM_vEEOT_, symObjAddr: 0x1DA0, symBinAddr: 0x1000128C0, symSize: 0x30 }
  - { offsetInCU: 0xB8FF, offset: 0x3A17D, size: 0x8, addend: 0x0, symName: __ZNKSt3__117__compressed_pairIPNS_10__function6__funcINS_6__bindIMN4ezgl6cameraEKFNS4_7point2dES6_EJRS5_RKNS_12placeholders4__phILi1EEEEEENS_9allocatorISF_EEFS6_S6_EEENS_22__allocator_destructorINSG_ISJ_EEEEE5firstB8ue170006Ev, symObjAddr: 0x1DD0, symBinAddr: 0x1000128F0, symSize: 0x20 }
  - { offsetInCU: 0xB925, offset: 0x3A1A3, size: 0x8, addend: 0x0, symName: __ZNKSt3__122__compressed_pair_elemIPNS_10__function6__funcINS_6__bindIMN4ezgl6cameraEKFNS4_7point2dES6_EJRS5_RKNS_12placeholders4__phILi1EEEEEENS_9allocatorISF_EEFS6_S6_EEELi0ELb0EE5__getB8ue170006Ev, symObjAddr: 0x1DF0, symBinAddr: 0x100012910, symSize: 0x10 }
  - { offsetInCU: 0xB94B, offset: 0x3A1C9, size: 0x8, addend: 0x0, symName: __ZNSt3__110__function6__funcINS_6__bindIMN4ezgl6cameraEKFNS3_7point2dES5_EJRS4_RKNS_12placeholders4__phILi1EEEEEENS_9allocatorISE_EEFS5_S5_EEC2B8ue170006EOSE_OSG_, symObjAddr: 0x1E00, symBinAddr: 0x100012920, symSize: 0x70 }
  - { offsetInCU: 0xB993, offset: 0x3A211, size: 0x8, addend: 0x0, symName: __ZNSt3__110__function6__baseIFN4ezgl7point2dES3_EEC2B8ue170006Ev, symObjAddr: 0x1E70, symBinAddr: 0x100012990, symSize: 0x20 }
  - { offsetInCU: 0xB9BD, offset: 0x3A23B, size: 0x8, addend: 0x0, symName: __ZNSt3__110__function12__alloc_funcINS_6__bindIMN4ezgl6cameraEKFNS3_7point2dES5_EJRS4_RKNS_12placeholders4__phILi1EEEEEENS_9allocatorISE_EEFS5_S5_EEC1B8ue170006EOSE_OSG_, symObjAddr: 0x1E90, symBinAddr: 0x1000129B0, symSize: 0x30 }
  - { offsetInCU: 0xBA03, offset: 0x3A281, size: 0x8, addend: 0x0, symName: __ZNSt3__110__function6__baseIFN4ezgl7point2dES3_EED2Ev, symObjAddr: 0x1EC0, symBinAddr: 0x1000129E0, symSize: 0x10 }
  - { offsetInCU: 0xBA2D, offset: 0x3A2AB, size: 0x8, addend: 0x0, symName: __ZNSt3__110__function6__funcINS_6__bindIMN4ezgl6cameraEKFNS3_7point2dES5_EJRS4_RKNS_12placeholders4__phILi1EEEEEENS_9allocatorISE_EEFS5_S5_EED1Ev, symObjAddr: 0x1ED0, symBinAddr: 0x1000129F0, symSize: 0x20 }
  - { offsetInCU: 0xBA5A, offset: 0x3A2D8, size: 0x8, addend: 0x0, symName: __ZNSt3__110__function6__funcINS_6__bindIMN4ezgl6cameraEKFNS3_7point2dES5_EJRS4_RKNS_12placeholders4__phILi1EEEEEENS_9allocatorISE_EEFS5_S5_EED0Ev, symObjAddr: 0x1EF0, symBinAddr: 0x100012A10, symSize: 0x30 }
  - { offsetInCU: 0xBA87, offset: 0x3A305, size: 0x8, addend: 0x0, symName: __ZNKSt3__110__function6__funcINS_6__bindIMN4ezgl6cameraEKFNS3_7point2dES5_EJRS4_RKNS_12placeholders4__phILi1EEEEEENS_9allocatorISE_EEFS5_S5_EE7__cloneEv, symObjAddr: 0x1F20, symBinAddr: 0x100012A40, symSize: 0x110 }
  - { offsetInCU: 0xBAD9, offset: 0x3A357, size: 0x8, addend: 0x0, symName: __ZNKSt3__110__function6__funcINS_6__bindIMN4ezgl6cameraEKFNS3_7point2dES5_EJRS4_RKNS_12placeholders4__phILi1EEEEEENS_9allocatorISE_EEFS5_S5_EE7__cloneEPNS0_6__baseISH_EE, symObjAddr: 0x2030, symBinAddr: 0x100012B50, symSize: 0x50 }
  - { offsetInCU: 0xBB10, offset: 0x3A38E, size: 0x8, addend: 0x0, symName: __ZNSt3__110__function6__funcINS_6__bindIMN4ezgl6cameraEKFNS3_7point2dES5_EJRS4_RKNS_12placeholders4__phILi1EEEEEENS_9allocatorISE_EEFS5_S5_EE7destroyEv, symObjAddr: 0x2080, symBinAddr: 0x100012BA0, symSize: 0x20 }
  - { offsetInCU: 0xBB38, offset: 0x3A3B6, size: 0x8, addend: 0x0, symName: __ZNSt3__110__function6__funcINS_6__bindIMN4ezgl6cameraEKFNS3_7point2dES5_EJRS4_RKNS_12placeholders4__phILi1EEEEEENS_9allocatorISE_EEFS5_S5_EE18destroy_deallocateEv, symObjAddr: 0x20A0, symBinAddr: 0x100012BC0, symSize: 0x50 }
  - { offsetInCU: 0xBB7B, offset: 0x3A3F9, size: 0x8, addend: 0x0, symName: __ZNSt3__110__function6__funcINS_6__bindIMN4ezgl6cameraEKFNS3_7point2dES5_EJRS4_RKNS_12placeholders4__phILi1EEEEEENS_9allocatorISE_EEFS5_S5_EEclEOS5_, symObjAddr: 0x20F0, symBinAddr: 0x100012C10, symSize: 0x40 }
  - { offsetInCU: 0xBBB2, offset: 0x3A430, size: 0x8, addend: 0x0, symName: __ZNKSt3__110__function6__funcINS_6__bindIMN4ezgl6cameraEKFNS3_7point2dES5_EJRS4_RKNS_12placeholders4__phILi1EEEEEENS_9allocatorISE_EEFS5_S5_EE6targetERKSt9type_info, symObjAddr: 0x2130, symBinAddr: 0x100012C50, symSize: 0x60 }
  - { offsetInCU: 0xBBE9, offset: 0x3A467, size: 0x8, addend: 0x0, symName: __ZNKSt3__110__function6__funcINS_6__bindIMN4ezgl6cameraEKFNS3_7point2dES5_EJRS4_RKNS_12placeholders4__phILi1EEEEEENS_9allocatorISE_EEFS5_S5_EE11target_typeEv, symObjAddr: 0x2190, symBinAddr: 0x100012CB0, symSize: 0x20 }
  - { offsetInCU: 0xBC11, offset: 0x3A48F, size: 0x8, addend: 0x0, symName: __ZNSt3__110__function6__baseIFN4ezgl7point2dES3_EED1Ev, symObjAddr: 0x21B0, symBinAddr: 0x100012CD0, symSize: 0x10 }
  - { offsetInCU: 0xBC3B, offset: 0x3A4B9, size: 0x8, addend: 0x0, symName: __ZNSt3__110__function6__baseIFN4ezgl7point2dES3_EED0Ev, symObjAddr: 0x21C0, symBinAddr: 0x100012CE0, symSize: 0x10 }
  - { offsetInCU: 0xBC65, offset: 0x3A4E3, size: 0x8, addend: 0x0, symName: __ZNSt3__110__function12__alloc_funcINS_6__bindIMN4ezgl6cameraEKFNS3_7point2dES5_EJRS4_RKNS_12placeholders4__phILi1EEEEEENS_9allocatorISE_EEFS5_S5_EEC2B8ue170006EOSE_OSG_, symObjAddr: 0x21D0, symBinAddr: 0x100012CF0, symSize: 0x50 }
  - { offsetInCU: 0xBCAB, offset: 0x3A529, size: 0x8, addend: 0x0, symName: __ZNSt3__117__compressed_pairINS_6__bindIMN4ezgl6cameraEKFNS2_7point2dES4_EJRS3_RKNS_12placeholders4__phILi1EEEEEENS_9allocatorISD_EEEC1B8ue170006IJOSD_EJOSF_EEENS_21piecewise_construct_tENS_5tupleIJDpT_EEENSL_IJDpT0_EEE, symObjAddr: 0x2280, symBinAddr: 0x100012DA0, symSize: 0x30 }
  - { offsetInCU: 0xBD15, offset: 0x3A593, size: 0x8, addend: 0x0, symName: __ZNSt3__15tupleIJONS_6__bindIMN4ezgl6cameraEKFNS2_7point2dES4_EJRS3_RKNS_12placeholders4__phILi1EEEEEEEEC1B8ue170006IJSD_ELi0EEEDpOT_, symObjAddr: 0x22B0, symBinAddr: 0x100012DD0, symSize: 0x30 }
  - { offsetInCU: 0xBD5F, offset: 0x3A5DD, size: 0x8, addend: 0x0, symName: __ZNSt3__15tupleIJONS_6__bindIMN4ezgl6cameraEKFNS2_7point2dES4_EJRS3_RKNS_12placeholders4__phILi1EEEEEEEEC2B8ue170006IJSD_ELi0EEEDpOT_, symObjAddr: 0x22E0, symBinAddr: 0x100012E00, symSize: 0x30 }
  - { offsetInCU: 0xBDA9, offset: 0x3A627, size: 0x8, addend: 0x0, symName: __ZNSt3__112__tuple_implINS_15__tuple_indicesIJLm0EEEEJONS_6__bindIMN4ezgl6cameraEKFNS4_7point2dES6_EJRS5_RKNS_12placeholders4__phILi1EEEEEEEEC1B8ue170006IJLm0EEJSG_EJEJEJSF_EEENS1_IJXspT_EEEENS_13__tuple_typesIJDpT0_EEENS1_IJXspT1_EEEENSK_IJDpT2_EEEDpOT3_, symObjAddr: 0x2310, symBinAddr: 0x100012E30, symSize: 0x30 }
  - { offsetInCU: 0xBE3A, offset: 0x3A6B8, size: 0x8, addend: 0x0, symName: __ZNSt3__112__tuple_implINS_15__tuple_indicesIJLm0EEEEJONS_6__bindIMN4ezgl6cameraEKFNS4_7point2dES6_EJRS5_RKNS_12placeholders4__phILi1EEEEEEEEC2B8ue170006IJLm0EEJSG_EJEJEJSF_EEENS1_IJXspT_EEEENS_13__tuple_typesIJDpT0_EEENS1_IJXspT1_EEEENSK_IJDpT2_EEEDpOT3_, symObjAddr: 0x2340, symBinAddr: 0x100012E60, symSize: 0x30 }
  - { offsetInCU: 0xBECB, offset: 0x3A749, size: 0x8, addend: 0x0, symName: __ZNSt3__112__tuple_leafILm0EONS_6__bindIMN4ezgl6cameraEKFNS2_7point2dES4_EJRS3_RKNS_12placeholders4__phILi1EEEEEELb0EEC2B8ue170006ISD_vEEOT_, symObjAddr: 0x2370, symBinAddr: 0x100012E90, symSize: 0x20 }
  - { offsetInCU: 0xBF0E, offset: 0x3A78C, size: 0x8, addend: 0x0, symName: __ZNSt3__15tupleIJONS_9allocatorINS_6__bindIMN4ezgl6cameraEKFNS3_7point2dES5_EJRS4_RKNS_12placeholders4__phILi1EEEEEEEEEEC1B8ue170006IJSF_ELi0EEEDpOT_, symObjAddr: 0x2390, symBinAddr: 0x100012EB0, symSize: 0x30 }
  - { offsetInCU: 0xBF58, offset: 0x3A7D6, size: 0x8, addend: 0x0, symName: __ZNSt3__15tupleIJONS_9allocatorINS_6__bindIMN4ezgl6cameraEKFNS3_7point2dES5_EJRS4_RKNS_12placeholders4__phILi1EEEEEEEEEEC2B8ue170006IJSF_ELi0EEEDpOT_, symObjAddr: 0x23C0, symBinAddr: 0x100012EE0, symSize: 0x30 }
  - { offsetInCU: 0xBFA2, offset: 0x3A820, size: 0x8, addend: 0x0, symName: __ZNSt3__112__tuple_implINS_15__tuple_indicesIJLm0EEEEJONS_9allocatorINS_6__bindIMN4ezgl6cameraEKFNS5_7point2dES7_EJRS6_RKNS_12placeholders4__phILi1EEEEEEEEEEC1B8ue170006IJLm0EEJSI_EJEJEJSH_EEENS1_IJXspT_EEEENS_13__tuple_typesIJDpT0_EEENS1_IJXspT1_EEEENSM_IJDpT2_EEEDpOT3_, symObjAddr: 0x23F0, symBinAddr: 0x100012F10, symSize: 0x30 }
  - { offsetInCU: 0xC033, offset: 0x3A8B1, size: 0x8, addend: 0x0, symName: __ZNSt3__112__tuple_implINS_15__tuple_indicesIJLm0EEEEJONS_9allocatorINS_6__bindIMN4ezgl6cameraEKFNS5_7point2dES7_EJRS6_RKNS_12placeholders4__phILi1EEEEEEEEEEC2B8ue170006IJLm0EEJSI_EJEJEJSH_EEENS1_IJXspT_EEEENS_13__tuple_typesIJDpT0_EEENS1_IJXspT1_EEEENSM_IJDpT2_EEEDpOT3_, symObjAddr: 0x2420, symBinAddr: 0x100012F40, symSize: 0x30 }
  - { offsetInCU: 0xC0C4, offset: 0x3A942, size: 0x8, addend: 0x0, symName: __ZNSt3__112__tuple_leafILm0EONS_9allocatorINS_6__bindIMN4ezgl6cameraEKFNS3_7point2dES5_EJRS4_RKNS_12placeholders4__phILi1EEEEEEEELb0EEC2B8ue170006ISF_vEEOT_, symObjAddr: 0x2450, symBinAddr: 0x100012F70, symSize: 0x20 }
  - { offsetInCU: 0xC107, offset: 0x3A985, size: 0x8, addend: 0x0, symName: __ZNSt3__117__compressed_pairINS_6__bindIMN4ezgl6cameraEKFNS2_7point2dES4_EJRS3_RKNS_12placeholders4__phILi1EEEEEENS_9allocatorISD_EEEC2B8ue170006IJOSD_EJOSF_EEENS_21piecewise_construct_tENS_5tupleIJDpT_EEENSL_IJDpT0_EEE, symObjAddr: 0x2470, symBinAddr: 0x100012F90, symSize: 0x50 }
  - { offsetInCU: 0xC171, offset: 0x3A9EF, size: 0x8, addend: 0x0, symName: __ZNSt3__122__compressed_pair_elemINS_6__bindIMN4ezgl6cameraEKFNS2_7point2dES4_EJRS3_RKNS_12placeholders4__phILi1EEEEEELi0ELb0EEC2B8ue170006IJOSD_EJLm0EEEENS_21piecewise_construct_tENS_5tupleIJDpT_EEENS_15__tuple_indicesIJXspT0_EEEE, symObjAddr: 0x24C0, symBinAddr: 0x100012FE0, symSize: 0x40 }
  - { offsetInCU: 0xC1D6, offset: 0x3AA54, size: 0x8, addend: 0x0, symName: __ZNSt3__122__compressed_pair_elemINS_9allocatorINS_6__bindIMN4ezgl6cameraEKFNS3_7point2dES5_EJRS4_RKNS_12placeholders4__phILi1EEEEEEEELi1ELb1EEC2B8ue170006IJOSF_EJLm0EEEENS_21piecewise_construct_tENS_5tupleIJDpT_EEENS_15__tuple_indicesIJXspT0_EEEE, symObjAddr: 0x2500, symBinAddr: 0x100013020, symSize: 0x20 }
  - { offsetInCU: 0xC23B, offset: 0x3AAB9, size: 0x8, addend: 0x0, symName: __ZNSt3__112__tuple_leafILm0EONS_6__bindIMN4ezgl6cameraEKFNS2_7point2dES4_EJRS3_RKNS_12placeholders4__phILi1EEEEEELb0EE3getB8ue170006Ev, symObjAddr: 0x2540, symBinAddr: 0x100013060, symSize: 0x20 }
  - { offsetInCU: 0xC261, offset: 0x3AADF, size: 0x8, addend: 0x0, symName: __ZNSt3__112__tuple_leafILm0EONS_9allocatorINS_6__bindIMN4ezgl6cameraEKFNS3_7point2dES5_EJRS4_RKNS_12placeholders4__phILi1EEEEEEEELb0EE3getB8ue170006Ev, symObjAddr: 0x2580, symBinAddr: 0x1000130A0, symSize: 0x20 }
  - { offsetInCU: 0xC287, offset: 0x3AB05, size: 0x8, addend: 0x0, symName: __ZNSt3__110__function6__funcINS_6__bindIMN4ezgl6cameraEKFNS3_7point2dES5_EJRS4_RKNS_12placeholders4__phILi1EEEEEENS_9allocatorISE_EEFS5_S5_EED2Ev, symObjAddr: 0x25A0, symBinAddr: 0x1000130C0, symSize: 0x20 }
  - { offsetInCU: 0xC2B4, offset: 0x3AB32, size: 0x8, addend: 0x0, symName: __ZNKSt3__110__function12__alloc_funcINS_6__bindIMN4ezgl6cameraEKFNS3_7point2dES5_EJRS4_RKNS_12placeholders4__phILi1EEEEEENS_9allocatorISE_EEFS5_S5_EE15__get_allocatorB8ue170006Ev, symObjAddr: 0x25C0, symBinAddr: 0x1000130E0, symSize: 0x20 }
  - { offsetInCU: 0xC303, offset: 0x3AB81, size: 0x8, addend: 0x0, symName: __ZNSt3__110unique_ptrINS_10__function6__funcINS_6__bindIMN4ezgl6cameraEKFNS4_7point2dES6_EJRS5_RKNS_12placeholders4__phILi1EEEEEENS_9allocatorISF_EEFS6_S6_EEENS_22__allocator_destructorINSG_ISJ_EEEEEC1B8ue170006ILb1EvEEPSJ_NS_16__dependent_typeINS_27__unique_ptr_deleter_sfinaeISM_EEXT_EE20__good_rval_ref_typeE, symObjAddr: 0x25E0, symBinAddr: 0x100013100, symSize: 0x30 }
  - { offsetInCU: 0xC354, offset: 0x3ABD2, size: 0x8, addend: 0x0, symName: __ZNKSt3__110unique_ptrINS_10__function6__funcINS_6__bindIMN4ezgl6cameraEKFNS4_7point2dES6_EJRS5_RKNS_12placeholders4__phILi1EEEEEENS_9allocatorISF_EEFS6_S6_EEENS_22__allocator_destructorINSG_ISJ_EEEEE3getB8ue170006Ev, symObjAddr: 0x2610, symBinAddr: 0x100013130, symSize: 0x20 }
  - { offsetInCU: 0xC37A, offset: 0x3ABF8, size: 0x8, addend: 0x0, symName: __ZNKSt3__110__function12__alloc_funcINS_6__bindIMN4ezgl6cameraEKFNS3_7point2dES5_EJRS4_RKNS_12placeholders4__phILi1EEEEEENS_9allocatorISE_EEFS5_S5_EE8__targetB8ue170006Ev, symObjAddr: 0x2630, symBinAddr: 0x100013150, symSize: 0x20 }
  - { offsetInCU: 0xC3A5, offset: 0x3AC23, size: 0x8, addend: 0x0, symName: __ZNSt3__19allocatorINS_6__bindIMN4ezgl6cameraEKFNS2_7point2dES4_EJRS3_RKNS_12placeholders4__phILi1EEEEEEEC1B8ue170006INS_10__function6__funcISD_SE_FS4_S4_EEEEERKNS0_IT_EE, symObjAddr: 0x2650, symBinAddr: 0x100013170, symSize: 0x30 }
  - { offsetInCU: 0xC3E3, offset: 0x3AC61, size: 0x8, addend: 0x0, symName: __ZNSt3__110__function6__funcINS_6__bindIMN4ezgl6cameraEKFNS3_7point2dES5_EJRS4_RKNS_12placeholders4__phILi1EEEEEENS_9allocatorISE_EEFS5_S5_EEC1B8ue170006ERKSE_OSG_, symObjAddr: 0x2680, symBinAddr: 0x1000131A0, symSize: 0x30 }
  - { offsetInCU: 0xC42B, offset: 0x3ACA9, size: 0x8, addend: 0x0, symName: __ZNSt3__110unique_ptrINS_10__function6__funcINS_6__bindIMN4ezgl6cameraEKFNS4_7point2dES6_EJRS5_RKNS_12placeholders4__phILi1EEEEEENS_9allocatorISF_EEFS6_S6_EEENS_22__allocator_destructorINSG_ISJ_EEEEE7releaseB8ue170006Ev, symObjAddr: 0x26B0, symBinAddr: 0x1000131D0, symSize: 0x40 }
  - { offsetInCU: 0xC460, offset: 0x3ACDE, size: 0x8, addend: 0x0, symName: __ZNSt3__110unique_ptrINS_10__function6__funcINS_6__bindIMN4ezgl6cameraEKFNS4_7point2dES6_EJRS5_RKNS_12placeholders4__phILi1EEEEEENS_9allocatorISF_EEFS6_S6_EEENS_22__allocator_destructorINSG_ISJ_EEEEED1B8ue170006Ev, symObjAddr: 0x26F0, symBinAddr: 0x100013210, symSize: 0x20 }
  - { offsetInCU: 0xC48A, offset: 0x3AD08, size: 0x8, addend: 0x0, symName: __ZNKSt3__117__compressed_pairINS_6__bindIMN4ezgl6cameraEKFNS2_7point2dES4_EJRS3_RKNS_12placeholders4__phILi1EEEEEENS_9allocatorISD_EEE6secondB8ue170006Ev, symObjAddr: 0x2710, symBinAddr: 0x100013230, symSize: 0x20 }
  - { offsetInCU: 0xC4B0, offset: 0x3AD2E, size: 0x8, addend: 0x0, symName: __ZNKSt3__122__compressed_pair_elemINS_9allocatorINS_6__bindIMN4ezgl6cameraEKFNS3_7point2dES5_EJRS4_RKNS_12placeholders4__phILi1EEEEEEEELi1ELb1EE5__getB8ue170006Ev, symObjAddr: 0x2730, symBinAddr: 0x100013250, symSize: 0x10 }
  - { offsetInCU: 0xC4D6, offset: 0x3AD54, size: 0x8, addend: 0x0, symName: __ZNSt3__110unique_ptrINS_10__function6__funcINS_6__bindIMN4ezgl6cameraEKFNS4_7point2dES6_EJRS5_RKNS_12placeholders4__phILi1EEEEEENS_9allocatorISF_EEFS6_S6_EEENS_22__allocator_destructorINSG_ISJ_EEEEEC2B8ue170006ILb1EvEEPSJ_NS_16__dependent_typeINS_27__unique_ptr_deleter_sfinaeISM_EEXT_EE20__good_rval_ref_typeE, symObjAddr: 0x2740, symBinAddr: 0x100013260, symSize: 0x40 }
  - { offsetInCU: 0xC527, offset: 0x3ADA5, size: 0x8, addend: 0x0, symName: __ZNKSt3__117__compressed_pairINS_6__bindIMN4ezgl6cameraEKFNS2_7point2dES4_EJRS3_RKNS_12placeholders4__phILi1EEEEEENS_9allocatorISD_EEE5firstB8ue170006Ev, symObjAddr: 0x2780, symBinAddr: 0x1000132A0, symSize: 0x20 }
  - { offsetInCU: 0xC54D, offset: 0x3ADCB, size: 0x8, addend: 0x0, symName: __ZNKSt3__122__compressed_pair_elemINS_6__bindIMN4ezgl6cameraEKFNS2_7point2dES4_EJRS3_RKNS_12placeholders4__phILi1EEEEEELi0ELb0EE5__getB8ue170006Ev, symObjAddr: 0x27A0, symBinAddr: 0x1000132C0, symSize: 0x10 }
  - { offsetInCU: 0xC573, offset: 0x3ADF1, size: 0x8, addend: 0x0, symName: __ZNSt3__19allocatorINS_6__bindIMN4ezgl6cameraEKFNS2_7point2dES4_EJRS3_RKNS_12placeholders4__phILi1EEEEEEEC2B8ue170006INS_10__function6__funcISD_SE_FS4_S4_EEEEERKNS0_IT_EE, symObjAddr: 0x27B0, symBinAddr: 0x1000132D0, symSize: 0x20 }
  - { offsetInCU: 0xC5B1, offset: 0x3AE2F, size: 0x8, addend: 0x0, symName: __ZNSt3__110__function6__funcINS_6__bindIMN4ezgl6cameraEKFNS3_7point2dES5_EJRS4_RKNS_12placeholders4__phILi1EEEEEENS_9allocatorISE_EEFS5_S5_EEC2B8ue170006ERKSE_OSG_, symObjAddr: 0x27D0, symBinAddr: 0x1000132F0, symSize: 0x70 }
  - { offsetInCU: 0xC5F9, offset: 0x3AE77, size: 0x8, addend: 0x0, symName: __ZNSt3__110__function12__alloc_funcINS_6__bindIMN4ezgl6cameraEKFNS3_7point2dES5_EJRS4_RKNS_12placeholders4__phILi1EEEEEENS_9allocatorISE_EEFS5_S5_EEC1B8ue170006ERKSE_OSG_, symObjAddr: 0x2840, symBinAddr: 0x100013360, symSize: 0x30 }
  - { offsetInCU: 0xC63F, offset: 0x3AEBD, size: 0x8, addend: 0x0, symName: __ZNSt3__110__function12__alloc_funcINS_6__bindIMN4ezgl6cameraEKFNS3_7point2dES5_EJRS4_RKNS_12placeholders4__phILi1EEEEEENS_9allocatorISE_EEFS5_S5_EEC2B8ue170006ERKSE_OSG_, symObjAddr: 0x2870, symBinAddr: 0x100013390, symSize: 0x50 }
  - { offsetInCU: 0xC685, offset: 0x3AF03, size: 0x8, addend: 0x0, symName: __ZNSt3__117__compressed_pairINS_6__bindIMN4ezgl6cameraEKFNS2_7point2dES4_EJRS3_RKNS_12placeholders4__phILi1EEEEEENS_9allocatorISD_EEEC1B8ue170006IJRKSD_EJOSF_EEENS_21piecewise_construct_tENS_5tupleIJDpT_EEENSM_IJDpT0_EEE, symObjAddr: 0x28F0, symBinAddr: 0x100013410, symSize: 0x30 }
  - { offsetInCU: 0xC6EF, offset: 0x3AF6D, size: 0x8, addend: 0x0, symName: __ZNSt3__15tupleIJRKNS_6__bindIMN4ezgl6cameraEKFNS2_7point2dES4_EJRS3_RKNS_12placeholders4__phILi1EEEEEEEEC1B8ue170006INS_4_AndELi0EEESF_, symObjAddr: 0x2920, symBinAddr: 0x100013440, symSize: 0x30 }
  - { offsetInCU: 0xC738, offset: 0x3AFB6, size: 0x8, addend: 0x0, symName: __ZNSt3__15tupleIJRKNS_6__bindIMN4ezgl6cameraEKFNS2_7point2dES4_EJRS3_RKNS_12placeholders4__phILi1EEEEEEEEC2B8ue170006INS_4_AndELi0EEESF_, symObjAddr: 0x2950, symBinAddr: 0x100013470, symSize: 0x30 }
  - { offsetInCU: 0xC781, offset: 0x3AFFF, size: 0x8, addend: 0x0, symName: __ZNSt3__112__tuple_implINS_15__tuple_indicesIJLm0EEEEJRKNS_6__bindIMN4ezgl6cameraEKFNS4_7point2dES6_EJRS5_RKNS_12placeholders4__phILi1EEEEEEEEC1B8ue170006IJLm0EEJSH_EJEJEJSH_EEENS1_IJXspT_EEEENS_13__tuple_typesIJDpT0_EEENS1_IJXspT1_EEEENSL_IJDpT2_EEEDpOT3_, symObjAddr: 0x2980, symBinAddr: 0x1000134A0, symSize: 0x30 }
  - { offsetInCU: 0xC812, offset: 0x3B090, size: 0x8, addend: 0x0, symName: __ZNSt3__112__tuple_implINS_15__tuple_indicesIJLm0EEEEJRKNS_6__bindIMN4ezgl6cameraEKFNS4_7point2dES6_EJRS5_RKNS_12placeholders4__phILi1EEEEEEEEC2B8ue170006IJLm0EEJSH_EJEJEJSH_EEENS1_IJXspT_EEEENS_13__tuple_typesIJDpT0_EEENS1_IJXspT1_EEEENSL_IJDpT2_EEEDpOT3_, symObjAddr: 0x29B0, symBinAddr: 0x1000134D0, symSize: 0x30 }
  - { offsetInCU: 0xC8A3, offset: 0x3B121, size: 0x8, addend: 0x0, symName: __ZNSt3__112__tuple_leafILm0ERKNS_6__bindIMN4ezgl6cameraEKFNS2_7point2dES4_EJRS3_RKNS_12placeholders4__phILi1EEEEEELb0EEC2B8ue170006ISF_vEEOT_, symObjAddr: 0x29E0, symBinAddr: 0x100013500, symSize: 0x20 }
  - { offsetInCU: 0xC8E6, offset: 0x3B164, size: 0x8, addend: 0x0, symName: __ZNSt3__117__compressed_pairINS_6__bindIMN4ezgl6cameraEKFNS2_7point2dES4_EJRS3_RKNS_12placeholders4__phILi1EEEEEENS_9allocatorISD_EEEC2B8ue170006IJRKSD_EJOSF_EEENS_21piecewise_construct_tENS_5tupleIJDpT_EEENSM_IJDpT0_EEE, symObjAddr: 0x2A00, symBinAddr: 0x100013520, symSize: 0x50 }
  - { offsetInCU: 0xC950, offset: 0x3B1CE, size: 0x8, addend: 0x0, symName: __ZNSt3__122__compressed_pair_elemINS_6__bindIMN4ezgl6cameraEKFNS2_7point2dES4_EJRS3_RKNS_12placeholders4__phILi1EEEEEELi0ELb0EEC2B8ue170006IJRKSD_EJLm0EEEENS_21piecewise_construct_tENS_5tupleIJDpT_EEENS_15__tuple_indicesIJXspT0_EEEE, symObjAddr: 0x2A50, symBinAddr: 0x100013570, symSize: 0x40 }
  - { offsetInCU: 0xC9B5, offset: 0x3B233, size: 0x8, addend: 0x0, symName: __ZNSt3__112__tuple_leafILm0ERKNS_6__bindIMN4ezgl6cameraEKFNS2_7point2dES4_EJRS3_RKNS_12placeholders4__phILi1EEEEEELb0EE3getB8ue170006Ev, symObjAddr: 0x2AB0, symBinAddr: 0x1000135D0, symSize: 0x20 }
  - { offsetInCU: 0xC9DB, offset: 0x3B259, size: 0x8, addend: 0x0, symName: __ZNSt3__117__compressed_pairIPNS_10__function6__funcINS_6__bindIMN4ezgl6cameraEKFNS4_7point2dES6_EJRS5_RKNS_12placeholders4__phILi1EEEEEENS_9allocatorISF_EEFS6_S6_EEENS_22__allocator_destructorINSG_ISJ_EEEEE5firstB8ue170006Ev, symObjAddr: 0x2AD0, symBinAddr: 0x1000135F0, symSize: 0x20 }
  - { offsetInCU: 0xCA01, offset: 0x3B27F, size: 0x8, addend: 0x0, symName: __ZNSt3__122__compressed_pair_elemIPNS_10__function6__funcINS_6__bindIMN4ezgl6cameraEKFNS4_7point2dES6_EJRS5_RKNS_12placeholders4__phILi1EEEEEENS_9allocatorISF_EEFS6_S6_EEELi0ELb0EE5__getB8ue170006Ev, symObjAddr: 0x2AF0, symBinAddr: 0x100013610, symSize: 0x10 }
  - { offsetInCU: 0xCA27, offset: 0x3B2A5, size: 0x8, addend: 0x0, symName: __ZNSt3__110unique_ptrINS_10__function6__funcINS_6__bindIMN4ezgl6cameraEKFNS4_7point2dES6_EJRS5_RKNS_12placeholders4__phILi1EEEEEENS_9allocatorISF_EEFS6_S6_EEENS_22__allocator_destructorINSG_ISJ_EEEEED2B8ue170006Ev, symObjAddr: 0x2B00, symBinAddr: 0x100013620, symSize: 0x20 }
  - { offsetInCU: 0xCA51, offset: 0x3B2CF, size: 0x8, addend: 0x0, symName: __ZNSt3__110unique_ptrINS_10__function6__funcINS_6__bindIMN4ezgl6cameraEKFNS4_7point2dES6_EJRS5_RKNS_12placeholders4__phILi1EEEEEENS_9allocatorISF_EEFS6_S6_EEENS_22__allocator_destructorINSG_ISJ_EEEEE5resetB8ue170006EPSJ_, symObjAddr: 0x2B20, symBinAddr: 0x100013640, symSize: 0x70 }
  - { offsetInCU: 0xCA95, offset: 0x3B313, size: 0x8, addend: 0x0, symName: __ZNSt3__117__compressed_pairIPNS_10__function6__funcINS_6__bindIMN4ezgl6cameraEKFNS4_7point2dES6_EJRS5_RKNS_12placeholders4__phILi1EEEEEENS_9allocatorISF_EEFS6_S6_EEENS_22__allocator_destructorINSG_ISJ_EEEEE6secondB8ue170006Ev, symObjAddr: 0x2B90, symBinAddr: 0x1000136B0, symSize: 0x20 }
  - { offsetInCU: 0xCABB, offset: 0x3B339, size: 0x8, addend: 0x0, symName: __ZNSt3__122__allocator_destructorINS_9allocatorINS_10__function6__funcINS_6__bindIMN4ezgl6cameraEKFNS5_7point2dES7_EJRS6_RKNS_12placeholders4__phILi1EEEEEENS1_ISG_EEFS7_S7_EEEEEEclB8ue170006EPSJ_, symObjAddr: 0x2BB0, symBinAddr: 0x1000136D0, symSize: 0x30 }
  - { offsetInCU: 0xCAEF, offset: 0x3B36D, size: 0x8, addend: 0x0, symName: __ZNSt3__122__compressed_pair_elemINS_22__allocator_destructorINS_9allocatorINS_10__function6__funcINS_6__bindIMN4ezgl6cameraEKFNS6_7point2dES8_EJRS7_RKNS_12placeholders4__phILi1EEEEEENS2_ISH_EEFS8_S8_EEEEEEELi1ELb0EE5__getB8ue170006Ev, symObjAddr: 0x2BE0, symBinAddr: 0x100013700, symSize: 0x10 }
  - { offsetInCU: 0xCB15, offset: 0x3B393, size: 0x8, addend: 0x0, symName: __ZNSt3__116allocator_traitsINS_9allocatorINS_10__function6__funcINS_6__bindIMN4ezgl6cameraEKFNS5_7point2dES7_EJRS6_RKNS_12placeholders4__phILi1EEEEEENS1_ISG_EEFS7_S7_EEEEEE10deallocateB8ue170006ERSK_PSJ_m, symObjAddr: 0x2BF0, symBinAddr: 0x100013710, symSize: 0x30 }
  - { offsetInCU: 0xCB57, offset: 0x3B3D5, size: 0x8, addend: 0x0, symName: __ZNSt3__19allocatorINS_10__function6__funcINS_6__bindIMN4ezgl6cameraEKFNS4_7point2dES6_EJRS5_RKNS_12placeholders4__phILi1EEEEEENS0_ISF_EEFS6_S6_EEEE10deallocateB8ue170006EPSI_m, symObjAddr: 0x2C20, symBinAddr: 0x100013740, symSize: 0x40 }
  - { offsetInCU: 0xCB99, offset: 0x3B417, size: 0x8, addend: 0x0, symName: __ZNSt3__110__function6__funcINS_6__bindIMN4ezgl6cameraEKFNS3_7point2dES5_EJRS4_RKNS_12placeholders4__phILi1EEEEEENS_9allocatorISE_EEFS5_S5_EEC1B8ue170006ERKSE_RKSG_, symObjAddr: 0x2CD0, symBinAddr: 0x100013780, symSize: 0x30 }
  - { offsetInCU: 0xCBE1, offset: 0x3B45F, size: 0x8, addend: 0x0, symName: __ZNSt3__110__function6__funcINS_6__bindIMN4ezgl6cameraEKFNS3_7point2dES5_EJRS4_RKNS_12placeholders4__phILi1EEEEEENS_9allocatorISE_EEFS5_S5_EEC2B8ue170006ERKSE_RKSG_, symObjAddr: 0x2D00, symBinAddr: 0x1000137B0, symSize: 0x70 }
  - { offsetInCU: 0xCC29, offset: 0x3B4A7, size: 0x8, addend: 0x0, symName: __ZNSt3__110__function12__alloc_funcINS_6__bindIMN4ezgl6cameraEKFNS3_7point2dES5_EJRS4_RKNS_12placeholders4__phILi1EEEEEENS_9allocatorISE_EEFS5_S5_EEC1B8ue170006ERKSE_RKSG_, symObjAddr: 0x2D70, symBinAddr: 0x100013820, symSize: 0x30 }
  - { offsetInCU: 0xCC6F, offset: 0x3B4ED, size: 0x8, addend: 0x0, symName: __ZNSt3__110__function12__alloc_funcINS_6__bindIMN4ezgl6cameraEKFNS3_7point2dES5_EJRS4_RKNS_12placeholders4__phILi1EEEEEENS_9allocatorISE_EEFS5_S5_EEC2B8ue170006ERKSE_RKSG_, symObjAddr: 0x2DA0, symBinAddr: 0x100013850, symSize: 0x50 }
  - { offsetInCU: 0xCCB5, offset: 0x3B533, size: 0x8, addend: 0x0, symName: __ZNSt3__117__compressed_pairINS_6__bindIMN4ezgl6cameraEKFNS2_7point2dES4_EJRS3_RKNS_12placeholders4__phILi1EEEEEENS_9allocatorISD_EEEC1B8ue170006IJRKSD_EJRKSF_EEENS_21piecewise_construct_tENS_5tupleIJDpT_EEENSN_IJDpT0_EEE, symObjAddr: 0x2E20, symBinAddr: 0x1000138D0, symSize: 0x30 }
  - { offsetInCU: 0xCD1F, offset: 0x3B59D, size: 0x8, addend: 0x0, symName: __ZNSt3__15tupleIJRKNS_9allocatorINS_6__bindIMN4ezgl6cameraEKFNS3_7point2dES5_EJRS4_RKNS_12placeholders4__phILi1EEEEEEEEEEC1B8ue170006INS_4_AndELi0EEESH_, symObjAddr: 0x2E50, symBinAddr: 0x100013900, symSize: 0x30 }
  - { offsetInCU: 0xCD68, offset: 0x3B5E6, size: 0x8, addend: 0x0, symName: __ZNSt3__15tupleIJRKNS_9allocatorINS_6__bindIMN4ezgl6cameraEKFNS3_7point2dES5_EJRS4_RKNS_12placeholders4__phILi1EEEEEEEEEEC2B8ue170006INS_4_AndELi0EEESH_, symObjAddr: 0x2E80, symBinAddr: 0x100013930, symSize: 0x30 }
  - { offsetInCU: 0xCDB1, offset: 0x3B62F, size: 0x8, addend: 0x0, symName: __ZNSt3__112__tuple_implINS_15__tuple_indicesIJLm0EEEEJRKNS_9allocatorINS_6__bindIMN4ezgl6cameraEKFNS5_7point2dES7_EJRS6_RKNS_12placeholders4__phILi1EEEEEEEEEEC1B8ue170006IJLm0EEJSJ_EJEJEJSJ_EEENS1_IJXspT_EEEENS_13__tuple_typesIJDpT0_EEENS1_IJXspT1_EEEENSN_IJDpT2_EEEDpOT3_, symObjAddr: 0x2EB0, symBinAddr: 0x100013960, symSize: 0x30 }
  - { offsetInCU: 0xCE42, offset: 0x3B6C0, size: 0x8, addend: 0x0, symName: __ZNSt3__112__tuple_implINS_15__tuple_indicesIJLm0EEEEJRKNS_9allocatorINS_6__bindIMN4ezgl6cameraEKFNS5_7point2dES7_EJRS6_RKNS_12placeholders4__phILi1EEEEEEEEEEC2B8ue170006IJLm0EEJSJ_EJEJEJSJ_EEENS1_IJXspT_EEEENS_13__tuple_typesIJDpT0_EEENS1_IJXspT1_EEEENSN_IJDpT2_EEEDpOT3_, symObjAddr: 0x2EE0, symBinAddr: 0x100013990, symSize: 0x30 }
  - { offsetInCU: 0xCED3, offset: 0x3B751, size: 0x8, addend: 0x0, symName: __ZNSt3__112__tuple_leafILm0ERKNS_9allocatorINS_6__bindIMN4ezgl6cameraEKFNS3_7point2dES5_EJRS4_RKNS_12placeholders4__phILi1EEEEEEEELb0EEC2B8ue170006ISH_vEEOT_, symObjAddr: 0x2F10, symBinAddr: 0x1000139C0, symSize: 0x20 }
  - { offsetInCU: 0xCF16, offset: 0x3B794, size: 0x8, addend: 0x0, symName: __ZNSt3__117__compressed_pairINS_6__bindIMN4ezgl6cameraEKFNS2_7point2dES4_EJRS3_RKNS_12placeholders4__phILi1EEEEEENS_9allocatorISD_EEEC2B8ue170006IJRKSD_EJRKSF_EEENS_21piecewise_construct_tENS_5tupleIJDpT_EEENSN_IJDpT0_EEE, symObjAddr: 0x2F30, symBinAddr: 0x1000139E0, symSize: 0x50 }
  - { offsetInCU: 0xCF80, offset: 0x3B7FE, size: 0x8, addend: 0x0, symName: __ZNSt3__122__compressed_pair_elemINS_9allocatorINS_6__bindIMN4ezgl6cameraEKFNS3_7point2dES5_EJRS4_RKNS_12placeholders4__phILi1EEEEEEEELi1ELb1EEC2B8ue170006IJRKSF_EJLm0EEEENS_21piecewise_construct_tENS_5tupleIJDpT_EEENS_15__tuple_indicesIJXspT0_EEEE, symObjAddr: 0x2F80, symBinAddr: 0x100013A30, symSize: 0x20 }
  - { offsetInCU: 0xCFE5, offset: 0x3B863, size: 0x8, addend: 0x0, symName: __ZNSt3__112__tuple_leafILm0ERKNS_9allocatorINS_6__bindIMN4ezgl6cameraEKFNS3_7point2dES5_EJRS4_RKNS_12placeholders4__phILi1EEEEEEEELb0EE3getB8ue170006Ev, symObjAddr: 0x2FC0, symBinAddr: 0x100013A70, symSize: 0x20 }
  - { offsetInCU: 0xD00B, offset: 0x3B889, size: 0x8, addend: 0x0, symName: __ZNSt3__110__function12__alloc_funcINS_6__bindIMN4ezgl6cameraEKFNS3_7point2dES5_EJRS4_RKNS_12placeholders4__phILi1EEEEEENS_9allocatorISE_EEFS5_S5_EE7destroyB8ue170006Ev, symObjAddr: 0x2FE0, symBinAddr: 0x100013A90, symSize: 0x10 }
  - { offsetInCU: 0xD031, offset: 0x3B8AF, size: 0x8, addend: 0x0, symName: __ZNSt3__110__function12__alloc_funcINS_6__bindIMN4ezgl6cameraEKFNS3_7point2dES5_EJRS4_RKNS_12placeholders4__phILi1EEEEEENS_9allocatorISE_EEFS5_S5_EEclB8ue170006EOS5_, symObjAddr: 0x2FF0, symBinAddr: 0x100013AA0, symSize: 0x40 }
  - { offsetInCU: 0xD065, offset: 0x3B8E3, size: 0x8, addend: 0x0, symName: __ZNSt3__128__invoke_void_return_wrapperIN4ezgl7point2dELb0EE6__callB8ue170006IJRNS_6__bindIMNS1_6cameraEKFS2_S2_EJRS6_RKNS_12placeholders4__phILi1EEEEEES2_EEES2_DpOT_, symObjAddr: 0x3030, symBinAddr: 0x100013AE0, symSize: 0x40 }
  - { offsetInCU: 0xD0A8, offset: 0x3B926, size: 0x8, addend: 0x0, symName: __ZNSt3__117__compressed_pairINS_6__bindIMN4ezgl6cameraEKFNS2_7point2dES4_EJRS3_RKNS_12placeholders4__phILi1EEEEEENS_9allocatorISD_EEE5firstB8ue170006Ev, symObjAddr: 0x3070, symBinAddr: 0x100013B20, symSize: 0x20 }
  - { offsetInCU: 0xD0CE, offset: 0x3B94C, size: 0x8, addend: 0x0, symName: __ZNSt3__16__bindIMN4ezgl6cameraEKFNS1_7point2dES3_EJRS2_RKNS_12placeholders4__phILi1EEEEEclB8ue170006IJS3_EEENS_13__bind_returnIS5_NS_5tupleIJS2_S9_EEENSF_IJDpOT_EEEXsr22__is_valid_bind_returnIS5_SG_SK_EE5valueEE4typeESJ_, symObjAddr: 0x30D0, symBinAddr: 0x100013B80, symSize: 0x60 }
  - { offsetInCU: 0xD10E, offset: 0x3B98C, size: 0x8, addend: 0x0, symName: __ZNSt3__15tupleIJON4ezgl7point2dEEEC1B8ue170006IJS2_ELi0EEEDpOT_, symObjAddr: 0x31B0, symBinAddr: 0x100013C60, symSize: 0x30 }
  - { offsetInCU: 0xD158, offset: 0x3B9D6, size: 0x8, addend: 0x0, symName: __ZNSt3__112__tuple_leafILm0EN4ezgl6cameraELb0EE3getB8ue170006Ev, symObjAddr: 0x3310, symBinAddr: 0x100013DC0, symSize: 0x10 }
  - { offsetInCU: 0xD17E, offset: 0x3B9FC, size: 0x8, addend: 0x0, symName: __ZNSt3__112__tuple_leafILm0EON4ezgl7point2dELb0EE3getB8ue170006Ev, symObjAddr: 0x3340, symBinAddr: 0x100013DF0, symSize: 0x20 }
  - { offsetInCU: 0xD1A4, offset: 0x3BA22, size: 0x8, addend: 0x0, symName: __ZNSt3__112__tuple_leafILm1ENS_12placeholders4__phILi1EEELb1EE3getB8ue170006Ev, symObjAddr: 0x3360, symBinAddr: 0x100013E10, symSize: 0x10 }
  - { offsetInCU: 0xD1CA, offset: 0x3BA48, size: 0x8, addend: 0x0, symName: __ZNSt3__15tupleIJON4ezgl7point2dEEEC2B8ue170006IJS2_ELi0EEEDpOT_, symObjAddr: 0x3370, symBinAddr: 0x100013E20, symSize: 0x30 }
  - { offsetInCU: 0xD214, offset: 0x3BA92, size: 0x8, addend: 0x0, symName: __ZNSt3__112__tuple_implINS_15__tuple_indicesIJLm0EEEEJON4ezgl7point2dEEEC1B8ue170006IJLm0EEJS5_EJEJEJS4_EEENS1_IJXspT_EEEENS_13__tuple_typesIJDpT0_EEENS1_IJXspT1_EEEENS9_IJDpT2_EEEDpOT3_, symObjAddr: 0x33A0, symBinAddr: 0x100013E50, symSize: 0x30 }
  - { offsetInCU: 0xD2A5, offset: 0x3BB23, size: 0x8, addend: 0x0, symName: __ZNSt3__112__tuple_implINS_15__tuple_indicesIJLm0EEEEJON4ezgl7point2dEEEC2B8ue170006IJLm0EEJS5_EJEJEJS4_EEENS1_IJXspT_EEEENS_13__tuple_typesIJDpT0_EEENS1_IJXspT1_EEEENS9_IJDpT2_EEEDpOT3_, symObjAddr: 0x33D0, symBinAddr: 0x100013E80, symSize: 0x30 }
  - { offsetInCU: 0xD336, offset: 0x3BBB4, size: 0x8, addend: 0x0, symName: __ZNSt3__112__tuple_leafILm0EON4ezgl7point2dELb0EEC2B8ue170006IS2_vEEOT_, symObjAddr: 0x3400, symBinAddr: 0x100013EB0, symSize: 0x20 }
  - { offsetInCU: 0xD379, offset: 0x3BBF7, size: 0x8, addend: 0x0, symName: __ZNSt3__122__compressed_pair_elemINS_6__bindIMN4ezgl6cameraEKFNS2_7point2dES4_EJRS3_RKNS_12placeholders4__phILi1EEEEEELi0ELb0EE5__getB8ue170006Ev, symObjAddr: 0x3420, symBinAddr: 0x100013ED0, symSize: 0x10 }
  - { offsetInCU: 0xD3BF, offset: 0x3BC3D, size: 0x8, addend: 0x0, symName: __ZNKSt9type_infoeqB8ue170006ERKS_, symObjAddr: 0x3430, symBinAddr: 0x100013EE0, symSize: 0x40 }
  - { offsetInCU: 0xD41D, offset: 0x3BC9B, size: 0x8, addend: 0x0, symName: __ZNSt3__110unique_ptrINS_10__function6__baseIFN4ezgl7point2dES4_EEENS_22__allocator_destructorINS_9allocatorINS1_6__funcINS_6__bindIMNS3_6cameraEKFS4_S4_EJRSB_RKNS_12placeholders4__phILi1EEEEEENS8_ISK_EES5_EEEEEEED2B8ue170006Ev, symObjAddr: 0x3470, symBinAddr: 0x100013F20, symSize: 0x20 }
  - { offsetInCU: 0xD447, offset: 0x3BCC5, size: 0x8, addend: 0x0, symName: __ZNSt3__110unique_ptrINS_10__function6__baseIFN4ezgl7point2dES4_EEENS_22__allocator_destructorINS_9allocatorINS1_6__funcINS_6__bindIMNS3_6cameraEKFS4_S4_EJRSB_RKNS_12placeholders4__phILi1EEEEEENS8_ISK_EES5_EEEEEEE5resetB8ue170006EPSM_, symObjAddr: 0x3490, symBinAddr: 0x100013F40, symSize: 0x70 }
  - { offsetInCU: 0xD48B, offset: 0x3BD09, size: 0x8, addend: 0x0, symName: __ZNSt3__18functionIFN4ezgl7point2dES2_EED2Ev, symObjAddr: 0x3500, symBinAddr: 0x100013FB0, symSize: 0x20 }
  - { offsetInCU: 0xD4B7, offset: 0x3BD35, size: 0x8, addend: 0x0, symName: __ZNSt3__110__function12__value_funcIFN4ezgl7point2dES3_EED1B8ue170006Ev, symObjAddr: 0x3520, symBinAddr: 0x100013FD0, symSize: 0x20 }
  - { offsetInCU: 0xD4E1, offset: 0x3BD5F, size: 0x8, addend: 0x0, symName: __ZNSt3__110__function12__value_funcIFN4ezgl7point2dES3_EED2B8ue170006Ev, symObjAddr: 0x3540, symBinAddr: 0x100013FF0, symSize: 0x60 }
  - { offsetInCU: 0xD516, offset: 0x3BD94, size: 0x8, addend: 0x0, symName: __ZNSt3__16__bindIMN4ezgl6cameraEKFNS1_7point2dES3_EJPS2_RKNS_12placeholders4__phILi1EEEEEC1B8ue170006IS5_JS6_SB_EvEEOT_DpOT0_, symObjAddr: 0x35A0, symBinAddr: 0x100014050, symSize: 0x40 }
  - { offsetInCU: 0xD587, offset: 0x3BE05, size: 0x8, addend: 0x0, symName: __ZNSt3__16__bindIMN4ezgl6cameraEKFNS1_7point2dES3_EJPS2_RKNS_12placeholders4__phILi1EEEEEC2B8ue170006IS5_JS6_SB_EvEEOT_DpOT0_, symObjAddr: 0x35E0, symBinAddr: 0x100014090, symSize: 0x50 }
  - { offsetInCU: 0xD5F8, offset: 0x3BE76, size: 0x8, addend: 0x0, symName: __ZNSt3__15tupleIJPN4ezgl6cameraENS_12placeholders4__phILi1EEEEEC1B8ue170006IJS3_RKS6_ELi0EEEDpOT_, symObjAddr: 0x3630, symBinAddr: 0x1000140E0, symSize: 0x30 }
  - { offsetInCU: 0xD656, offset: 0x3BED4, size: 0x8, addend: 0x0, symName: __ZNSt3__15tupleIJPN4ezgl6cameraENS_12placeholders4__phILi1EEEEEC2B8ue170006IJS3_RKS6_ELi0EEEDpOT_, symObjAddr: 0x3660, symBinAddr: 0x100014110, symSize: 0x30 }
  - { offsetInCU: 0xD6B4, offset: 0x3BF32, size: 0x8, addend: 0x0, symName: __ZNSt3__112__tuple_implINS_15__tuple_indicesIJLm0ELm1EEEEJPN4ezgl6cameraENS_12placeholders4__phILi1EEEEEC1B8ue170006IJLm0ELm1EEJS5_S8_EJEJEJS5_RKS8_EEENS1_IJXspT_EEEENS_13__tuple_typesIJDpT0_EEENS1_IJXspT1_EEEENSE_IJDpT2_EEEDpOT3_, symObjAddr: 0x3690, symBinAddr: 0x100014140, symSize: 0x30 }
  - { offsetInCU: 0xD764, offset: 0x3BFE2, size: 0x8, addend: 0x0, symName: __ZNSt3__112__tuple_implINS_15__tuple_indicesIJLm0ELm1EEEEJPN4ezgl6cameraENS_12placeholders4__phILi1EEEEEC2B8ue170006IJLm0ELm1EEJS5_S8_EJEJEJS5_RKS8_EEENS1_IJXspT_EEEENS_13__tuple_typesIJDpT0_EEENS1_IJXspT1_EEEENSE_IJDpT2_EEEDpOT3_, symObjAddr: 0x36C0, symBinAddr: 0x100014170, symSize: 0x40 }
  - { offsetInCU: 0xD814, offset: 0x3C092, size: 0x8, addend: 0x0, symName: __ZNSt3__112__tuple_leafILm0EPN4ezgl6cameraELb0EEC2B8ue170006IS3_vEEOT_, symObjAddr: 0x3700, symBinAddr: 0x1000141B0, symSize: 0x20 }
  - { offsetInCU: 0xD857, offset: 0x3C0D5, size: 0x8, addend: 0x0, symName: __ZNSt3__18functionIFN4ezgl7point2dES2_EEC2INS_6__bindIMNS1_6cameraEKFS2_S2_EJPS7_RKNS_12placeholders4__phILi1EEEEEEvEET_, symObjAddr: 0x3720, symBinAddr: 0x1000141D0, symSize: 0x20 }
  - { offsetInCU: 0xD89C, offset: 0x3C11A, size: 0x8, addend: 0x0, symName: __ZNSt3__110__function12__value_funcIFN4ezgl7point2dES3_EEC1B8ue170006INS_6__bindIMNS2_6cameraEKFS3_S3_EJPS8_RKNS_12placeholders4__phILi1EEEEEEvEEOT_, symObjAddr: 0x3740, symBinAddr: 0x1000141F0, symSize: 0x40 }
  - { offsetInCU: 0xD8DF, offset: 0x3C15D, size: 0x8, addend: 0x0, symName: __ZNSt3__19allocatorINS_6__bindIMN4ezgl6cameraEKFNS2_7point2dES4_EJPS3_RKNS_12placeholders4__phILi1EEEEEEEC1B8ue170006Ev, symObjAddr: 0x3780, symBinAddr: 0x100014230, symSize: 0x20 }
  - { offsetInCU: 0xD909, offset: 0x3C187, size: 0x8, addend: 0x0, symName: __ZNSt3__110__function12__value_funcIFN4ezgl7point2dES3_EEC1B8ue170006INS_6__bindIMNS2_6cameraEKFS3_S3_EJPS8_RKNS_12placeholders4__phILi1EEEEEENS_9allocatorISH_EEEEOT_RKT0_, symObjAddr: 0x37A0, symBinAddr: 0x100014250, symSize: 0x30 }
  - { offsetInCU: 0xD963, offset: 0x3C1E1, size: 0x8, addend: 0x0, symName: __ZNSt3__19allocatorINS_6__bindIMN4ezgl6cameraEKFNS2_7point2dES4_EJPS3_RKNS_12placeholders4__phILi1EEEEEEEC2B8ue170006Ev, symObjAddr: 0x37D0, symBinAddr: 0x100014280, symSize: 0x20 }
  - { offsetInCU: 0xD98D, offset: 0x3C20B, size: 0x8, addend: 0x0, symName: __ZNSt3__116__non_trivial_ifILb1ENS_9allocatorINS_6__bindIMN4ezgl6cameraEKFNS3_7point2dES5_EJPS4_RKNS_12placeholders4__phILi1EEEEEEEEEC2B8ue170006Ev, symObjAddr: 0x37F0, symBinAddr: 0x1000142A0, symSize: 0x10 }
  - { offsetInCU: 0xD9B7, offset: 0x3C235, size: 0x8, addend: 0x0, symName: __ZNSt3__110__function12__value_funcIFN4ezgl7point2dES3_EEC2B8ue170006INS_6__bindIMNS2_6cameraEKFS3_S3_EJPS8_RKNS_12placeholders4__phILi1EEEEEENS_9allocatorISH_EEEEOT_RKT0_, symObjAddr: 0x3800, symBinAddr: 0x1000142B0, symSize: 0x80 }
  - { offsetInCU: 0xDA5D, offset: 0x3C2DB, size: 0x8, addend: 0x0, symName: __ZNSt3__19allocatorINS_10__function6__funcINS_6__bindIMN4ezgl6cameraEKFNS4_7point2dES6_EJPS5_RKNS_12placeholders4__phILi1EEEEEENS0_ISF_EEFS6_S6_EEEEC1B8ue170006ISF_EERKNS0_IT_EE, symObjAddr: 0x38A0, symBinAddr: 0x100014350, symSize: 0x30 }
  - { offsetInCU: 0xDAA0, offset: 0x3C31E, size: 0x8, addend: 0x0, symName: __ZNSt3__19allocatorINS_6__bindIMN4ezgl6cameraEKFNS2_7point2dES4_EJPS3_RKNS_12placeholders4__phILi1EEEEEEEC1B8ue170006INS_10__function6__funcISD_SE_FS4_S4_EEEEERKNS0_IT_EE, symObjAddr: 0x38D0, symBinAddr: 0x100014380, symSize: 0x30 }
  - { offsetInCU: 0xDADE, offset: 0x3C35C, size: 0x8, addend: 0x0, symName: __ZNSt3__110__function6__funcINS_6__bindIMN4ezgl6cameraEKFNS3_7point2dES5_EJPS4_RKNS_12placeholders4__phILi1EEEEEENS_9allocatorISE_EEFS5_S5_EEC1B8ue170006EOSE_OSG_, symObjAddr: 0x3900, symBinAddr: 0x1000143B0, symSize: 0x30 }
  - { offsetInCU: 0xDB26, offset: 0x3C3A4, size: 0x8, addend: 0x0, symName: __ZNSt3__19allocatorINS_10__function6__funcINS_6__bindIMN4ezgl6cameraEKFNS4_7point2dES6_EJPS5_RKNS_12placeholders4__phILi1EEEEEENS0_ISF_EEFS6_S6_EEEEC2B8ue170006ISF_EERKNS0_IT_EE, symObjAddr: 0x3930, symBinAddr: 0x1000143E0, symSize: 0x20 }
  - { offsetInCU: 0xDB64, offset: 0x3C3E2, size: 0x8, addend: 0x0, symName: __ZNSt3__116__non_trivial_ifILb1ENS_9allocatorINS_10__function6__funcINS_6__bindIMN4ezgl6cameraEKFNS5_7point2dES7_EJPS6_RKNS_12placeholders4__phILi1EEEEEENS1_ISG_EEFS7_S7_EEEEEEC2B8ue170006Ev, symObjAddr: 0x3950, symBinAddr: 0x100014400, symSize: 0x10 }
  - { offsetInCU: 0xDB8E, offset: 0x3C40C, size: 0x8, addend: 0x0, symName: __ZNSt3__19allocatorINS_6__bindIMN4ezgl6cameraEKFNS2_7point2dES4_EJPS3_RKNS_12placeholders4__phILi1EEEEEEEC2B8ue170006INS_10__function6__funcISD_SE_FS4_S4_EEEEERKNS0_IT_EE, symObjAddr: 0x3960, symBinAddr: 0x100014410, symSize: 0x20 }
  - { offsetInCU: 0xDBCC, offset: 0x3C44A, size: 0x8, addend: 0x0, symName: __ZNSt3__110__function6__funcINS_6__bindIMN4ezgl6cameraEKFNS3_7point2dES5_EJPS4_RKNS_12placeholders4__phILi1EEEEEENS_9allocatorISE_EEFS5_S5_EEC2B8ue170006EOSE_OSG_, symObjAddr: 0x3980, symBinAddr: 0x100014430, symSize: 0x70 }
  - { offsetInCU: 0xDC14, offset: 0x3C492, size: 0x8, addend: 0x0, symName: __ZNSt3__110__function12__alloc_funcINS_6__bindIMN4ezgl6cameraEKFNS3_7point2dES5_EJPS4_RKNS_12placeholders4__phILi1EEEEEENS_9allocatorISE_EEFS5_S5_EEC1B8ue170006EOSE_OSG_, symObjAddr: 0x39F0, symBinAddr: 0x1000144A0, symSize: 0x30 }
  - { offsetInCU: 0xDC5A, offset: 0x3C4D8, size: 0x8, addend: 0x0, symName: __ZNSt3__110__function6__funcINS_6__bindIMN4ezgl6cameraEKFNS3_7point2dES5_EJPS4_RKNS_12placeholders4__phILi1EEEEEENS_9allocatorISE_EEFS5_S5_EED1Ev, symObjAddr: 0x3A20, symBinAddr: 0x1000144D0, symSize: 0x20 }
  - { offsetInCU: 0xDC87, offset: 0x3C505, size: 0x8, addend: 0x0, symName: __ZNSt3__110__function6__funcINS_6__bindIMN4ezgl6cameraEKFNS3_7point2dES5_EJPS4_RKNS_12placeholders4__phILi1EEEEEENS_9allocatorISE_EEFS5_S5_EED0Ev, symObjAddr: 0x3A40, symBinAddr: 0x1000144F0, symSize: 0x30 }
  - { offsetInCU: 0xDCB4, offset: 0x3C532, size: 0x8, addend: 0x0, symName: __ZNKSt3__110__function6__funcINS_6__bindIMN4ezgl6cameraEKFNS3_7point2dES5_EJPS4_RKNS_12placeholders4__phILi1EEEEEENS_9allocatorISE_EEFS5_S5_EE7__cloneEv, symObjAddr: 0x3A70, symBinAddr: 0x100014520, symSize: 0x110 }
  - { offsetInCU: 0xDD06, offset: 0x3C584, size: 0x8, addend: 0x0, symName: __ZNKSt3__110__function6__funcINS_6__bindIMN4ezgl6cameraEKFNS3_7point2dES5_EJPS4_RKNS_12placeholders4__phILi1EEEEEENS_9allocatorISE_EEFS5_S5_EE7__cloneEPNS0_6__baseISH_EE, symObjAddr: 0x3B80, symBinAddr: 0x100014630, symSize: 0x50 }
  - { offsetInCU: 0xDD3D, offset: 0x3C5BB, size: 0x8, addend: 0x0, symName: __ZNSt3__110__function6__funcINS_6__bindIMN4ezgl6cameraEKFNS3_7point2dES5_EJPS4_RKNS_12placeholders4__phILi1EEEEEENS_9allocatorISE_EEFS5_S5_EE7destroyEv, symObjAddr: 0x3BD0, symBinAddr: 0x100014680, symSize: 0x20 }
  - { offsetInCU: 0xDD65, offset: 0x3C5E3, size: 0x8, addend: 0x0, symName: __ZNSt3__110__function6__funcINS_6__bindIMN4ezgl6cameraEKFNS3_7point2dES5_EJPS4_RKNS_12placeholders4__phILi1EEEEEENS_9allocatorISE_EEFS5_S5_EE18destroy_deallocateEv, symObjAddr: 0x3BF0, symBinAddr: 0x1000146A0, symSize: 0x50 }
  - { offsetInCU: 0xDDA8, offset: 0x3C626, size: 0x8, addend: 0x0, symName: __ZNSt3__110__function6__funcINS_6__bindIMN4ezgl6cameraEKFNS3_7point2dES5_EJPS4_RKNS_12placeholders4__phILi1EEEEEENS_9allocatorISE_EEFS5_S5_EEclEOS5_, symObjAddr: 0x3C40, symBinAddr: 0x1000146F0, symSize: 0x40 }
  - { offsetInCU: 0xDDDF, offset: 0x3C65D, size: 0x8, addend: 0x0, symName: __ZNKSt3__110__function6__funcINS_6__bindIMN4ezgl6cameraEKFNS3_7point2dES5_EJPS4_RKNS_12placeholders4__phILi1EEEEEENS_9allocatorISE_EEFS5_S5_EE6targetERKSt9type_info, symObjAddr: 0x3C80, symBinAddr: 0x100014730, symSize: 0x60 }
  - { offsetInCU: 0xDE16, offset: 0x3C694, size: 0x8, addend: 0x0, symName: __ZNKSt3__110__function6__funcINS_6__bindIMN4ezgl6cameraEKFNS3_7point2dES5_EJPS4_RKNS_12placeholders4__phILi1EEEEEENS_9allocatorISE_EEFS5_S5_EE11target_typeEv, symObjAddr: 0x3CE0, symBinAddr: 0x100014790, symSize: 0x20 }
  - { offsetInCU: 0xDE3E, offset: 0x3C6BC, size: 0x8, addend: 0x0, symName: __ZNSt3__110__function12__alloc_funcINS_6__bindIMN4ezgl6cameraEKFNS3_7point2dES5_EJPS4_RKNS_12placeholders4__phILi1EEEEEENS_9allocatorISE_EEFS5_S5_EEC2B8ue170006EOSE_OSG_, symObjAddr: 0x3D00, symBinAddr: 0x1000147B0, symSize: 0x50 }
  - { offsetInCU: 0xDE84, offset: 0x3C702, size: 0x8, addend: 0x0, symName: __ZNSt3__117__compressed_pairINS_6__bindIMN4ezgl6cameraEKFNS2_7point2dES4_EJPS3_RKNS_12placeholders4__phILi1EEEEEENS_9allocatorISD_EEEC1B8ue170006IJOSD_EJOSF_EEENS_21piecewise_construct_tENS_5tupleIJDpT_EEENSL_IJDpT0_EEE, symObjAddr: 0x3DB0, symBinAddr: 0x100014860, symSize: 0x30 }
  - { offsetInCU: 0xDEEE, offset: 0x3C76C, size: 0x8, addend: 0x0, symName: __ZNSt3__15tupleIJONS_6__bindIMN4ezgl6cameraEKFNS2_7point2dES4_EJPS3_RKNS_12placeholders4__phILi1EEEEEEEEC1B8ue170006IJSD_ELi0EEEDpOT_, symObjAddr: 0x3DE0, symBinAddr: 0x100014890, symSize: 0x30 }
  - { offsetInCU: 0xDF38, offset: 0x3C7B6, size: 0x8, addend: 0x0, symName: __ZNSt3__15tupleIJONS_6__bindIMN4ezgl6cameraEKFNS2_7point2dES4_EJPS3_RKNS_12placeholders4__phILi1EEEEEEEEC2B8ue170006IJSD_ELi0EEEDpOT_, symObjAddr: 0x3E10, symBinAddr: 0x1000148C0, symSize: 0x30 }
  - { offsetInCU: 0xDF82, offset: 0x3C800, size: 0x8, addend: 0x0, symName: __ZNSt3__112__tuple_implINS_15__tuple_indicesIJLm0EEEEJONS_6__bindIMN4ezgl6cameraEKFNS4_7point2dES6_EJPS5_RKNS_12placeholders4__phILi1EEEEEEEEC1B8ue170006IJLm0EEJSG_EJEJEJSF_EEENS1_IJXspT_EEEENS_13__tuple_typesIJDpT0_EEENS1_IJXspT1_EEEENSK_IJDpT2_EEEDpOT3_, symObjAddr: 0x3E40, symBinAddr: 0x1000148F0, symSize: 0x30 }
  - { offsetInCU: 0xE013, offset: 0x3C891, size: 0x8, addend: 0x0, symName: __ZNSt3__112__tuple_implINS_15__tuple_indicesIJLm0EEEEJONS_6__bindIMN4ezgl6cameraEKFNS4_7point2dES6_EJPS5_RKNS_12placeholders4__phILi1EEEEEEEEC2B8ue170006IJLm0EEJSG_EJEJEJSF_EEENS1_IJXspT_EEEENS_13__tuple_typesIJDpT0_EEENS1_IJXspT1_EEEENSK_IJDpT2_EEEDpOT3_, symObjAddr: 0x3E70, symBinAddr: 0x100014920, symSize: 0x30 }
  - { offsetInCU: 0xE0A4, offset: 0x3C922, size: 0x8, addend: 0x0, symName: __ZNSt3__112__tuple_leafILm0EONS_6__bindIMN4ezgl6cameraEKFNS2_7point2dES4_EJPS3_RKNS_12placeholders4__phILi1EEEEEELb0EEC2B8ue170006ISD_vEEOT_, symObjAddr: 0x3EA0, symBinAddr: 0x100014950, symSize: 0x20 }
  - { offsetInCU: 0xE0E7, offset: 0x3C965, size: 0x8, addend: 0x0, symName: __ZNSt3__15tupleIJONS_9allocatorINS_6__bindIMN4ezgl6cameraEKFNS3_7point2dES5_EJPS4_RKNS_12placeholders4__phILi1EEEEEEEEEEC1B8ue170006IJSF_ELi0EEEDpOT_, symObjAddr: 0x3EC0, symBinAddr: 0x100014970, symSize: 0x30 }
  - { offsetInCU: 0xE131, offset: 0x3C9AF, size: 0x8, addend: 0x0, symName: __ZNSt3__15tupleIJONS_9allocatorINS_6__bindIMN4ezgl6cameraEKFNS3_7point2dES5_EJPS4_RKNS_12placeholders4__phILi1EEEEEEEEEEC2B8ue170006IJSF_ELi0EEEDpOT_, symObjAddr: 0x3EF0, symBinAddr: 0x1000149A0, symSize: 0x30 }
  - { offsetInCU: 0xE17B, offset: 0x3C9F9, size: 0x8, addend: 0x0, symName: __ZNSt3__112__tuple_implINS_15__tuple_indicesIJLm0EEEEJONS_9allocatorINS_6__bindIMN4ezgl6cameraEKFNS5_7point2dES7_EJPS6_RKNS_12placeholders4__phILi1EEEEEEEEEEC1B8ue170006IJLm0EEJSI_EJEJEJSH_EEENS1_IJXspT_EEEENS_13__tuple_typesIJDpT0_EEENS1_IJXspT1_EEEENSM_IJDpT2_EEEDpOT3_, symObjAddr: 0x3F20, symBinAddr: 0x1000149D0, symSize: 0x30 }
  - { offsetInCU: 0xE20C, offset: 0x3CA8A, size: 0x8, addend: 0x0, symName: __ZNSt3__112__tuple_implINS_15__tuple_indicesIJLm0EEEEJONS_9allocatorINS_6__bindIMN4ezgl6cameraEKFNS5_7point2dES7_EJPS6_RKNS_12placeholders4__phILi1EEEEEEEEEEC2B8ue170006IJLm0EEJSI_EJEJEJSH_EEENS1_IJXspT_EEEENS_13__tuple_typesIJDpT0_EEENS1_IJXspT1_EEEENSM_IJDpT2_EEEDpOT3_, symObjAddr: 0x3F50, symBinAddr: 0x100014A00, symSize: 0x30 }
  - { offsetInCU: 0xE29D, offset: 0x3CB1B, size: 0x8, addend: 0x0, symName: __ZNSt3__112__tuple_leafILm0EONS_9allocatorINS_6__bindIMN4ezgl6cameraEKFNS3_7point2dES5_EJPS4_RKNS_12placeholders4__phILi1EEEEEEEELb0EEC2B8ue170006ISF_vEEOT_, symObjAddr: 0x3F80, symBinAddr: 0x100014A30, symSize: 0x20 }
  - { offsetInCU: 0xE2E0, offset: 0x3CB5E, size: 0x8, addend: 0x0, symName: __ZNSt3__117__compressed_pairINS_6__bindIMN4ezgl6cameraEKFNS2_7point2dES4_EJPS3_RKNS_12placeholders4__phILi1EEEEEENS_9allocatorISD_EEEC2B8ue170006IJOSD_EJOSF_EEENS_21piecewise_construct_tENS_5tupleIJDpT_EEENSL_IJDpT0_EEE, symObjAddr: 0x3FA0, symBinAddr: 0x100014A50, symSize: 0x50 }
  - { offsetInCU: 0xE34A, offset: 0x3CBC8, size: 0x8, addend: 0x0, symName: __ZNSt3__122__compressed_pair_elemINS_6__bindIMN4ezgl6cameraEKFNS2_7point2dES4_EJPS3_RKNS_12placeholders4__phILi1EEEEEELi0ELb0EEC2B8ue170006IJOSD_EJLm0EEEENS_21piecewise_construct_tENS_5tupleIJDpT_EEENS_15__tuple_indicesIJXspT0_EEEE, symObjAddr: 0x3FF0, symBinAddr: 0x100014AA0, symSize: 0x50 }
  - { offsetInCU: 0xE3AF, offset: 0x3CC2D, size: 0x8, addend: 0x0, symName: __ZNSt3__122__compressed_pair_elemINS_9allocatorINS_6__bindIMN4ezgl6cameraEKFNS3_7point2dES5_EJPS4_RKNS_12placeholders4__phILi1EEEEEEEELi1ELb1EEC2B8ue170006IJOSF_EJLm0EEEENS_21piecewise_construct_tENS_5tupleIJDpT_EEENS_15__tuple_indicesIJXspT0_EEEE, symObjAddr: 0x4040, symBinAddr: 0x100014AF0, symSize: 0x20 }
  - { offsetInCU: 0xE414, offset: 0x3CC92, size: 0x8, addend: 0x0, symName: __ZNSt3__112__tuple_leafILm0EONS_6__bindIMN4ezgl6cameraEKFNS2_7point2dES4_EJPS3_RKNS_12placeholders4__phILi1EEEEEELb0EE3getB8ue170006Ev, symObjAddr: 0x4080, symBinAddr: 0x100014B30, symSize: 0x20 }
  - { offsetInCU: 0xE43A, offset: 0x3CCB8, size: 0x8, addend: 0x0, symName: __ZNSt3__112__tuple_leafILm0EONS_9allocatorINS_6__bindIMN4ezgl6cameraEKFNS3_7point2dES5_EJPS4_RKNS_12placeholders4__phILi1EEEEEEEELb0EE3getB8ue170006Ev, symObjAddr: 0x40C0, symBinAddr: 0x100014B70, symSize: 0x20 }
  - { offsetInCU: 0xE460, offset: 0x3CCDE, size: 0x8, addend: 0x0, symName: __ZNSt3__110__function6__funcINS_6__bindIMN4ezgl6cameraEKFNS3_7point2dES5_EJPS4_RKNS_12placeholders4__phILi1EEEEEENS_9allocatorISE_EEFS5_S5_EED2Ev, symObjAddr: 0x40E0, symBinAddr: 0x100014B90, symSize: 0x20 }
  - { offsetInCU: 0xE48D, offset: 0x3CD0B, size: 0x8, addend: 0x0, symName: __ZNKSt3__110__function12__alloc_funcINS_6__bindIMN4ezgl6cameraEKFNS3_7point2dES5_EJPS4_RKNS_12placeholders4__phILi1EEEEEENS_9allocatorISE_EEFS5_S5_EE15__get_allocatorB8ue170006Ev, symObjAddr: 0x4100, symBinAddr: 0x100014BB0, symSize: 0x20 }
  - { offsetInCU: 0xE4B3, offset: 0x3CD31, size: 0x8, addend: 0x0, symName: __ZNSt3__19allocatorINS_10__function6__funcINS_6__bindIMN4ezgl6cameraEKFNS4_7point2dES6_EJPS5_RKNS_12placeholders4__phILi1EEEEEENS0_ISF_EEFS6_S6_EEEE8allocateB8ue170006Em, symObjAddr: 0x4120, symBinAddr: 0x100014BD0, symSize: 0x50 }
  - { offsetInCU: 0xE4F6, offset: 0x3CD74, size: 0x8, addend: 0x0, symName: __ZNSt3__122__allocator_destructorINS_9allocatorINS_10__function6__funcINS_6__bindIMN4ezgl6cameraEKFNS5_7point2dES7_EJPS6_RKNS_12placeholders4__phILi1EEEEEENS1_ISG_EEFS7_S7_EEEEEEC1B8ue170006ERSK_m, symObjAddr: 0x4170, symBinAddr: 0x100014C20, symSize: 0x30 }
  - { offsetInCU: 0xE5CA, offset: 0x3CE48, size: 0x8, addend: 0x0, symName: __ZNSt3__110unique_ptrINS_10__function6__funcINS_6__bindIMN4ezgl6cameraEKFNS4_7point2dES6_EJPS5_RKNS_12placeholders4__phILi1EEEEEENS_9allocatorISF_EEFS6_S6_EEENS_22__allocator_destructorINSG_ISJ_EEEEEC1B8ue170006ILb1EvEEPSJ_NS_16__dependent_typeINS_27__unique_ptr_deleter_sfinaeISM_EEXT_EE20__good_rval_ref_typeE, symObjAddr: 0x41A0, symBinAddr: 0x100014C50, symSize: 0x30 }
  - { offsetInCU: 0xE61B, offset: 0x3CE99, size: 0x8, addend: 0x0, symName: __ZNKSt3__110unique_ptrINS_10__function6__funcINS_6__bindIMN4ezgl6cameraEKFNS4_7point2dES6_EJPS5_RKNS_12placeholders4__phILi1EEEEEENS_9allocatorISF_EEFS6_S6_EEENS_22__allocator_destructorINSG_ISJ_EEEEE3getB8ue170006Ev, symObjAddr: 0x41D0, symBinAddr: 0x100014C80, symSize: 0x20 }
  - { offsetInCU: 0xE641, offset: 0x3CEBF, size: 0x8, addend: 0x0, symName: __ZNKSt3__110__function12__alloc_funcINS_6__bindIMN4ezgl6cameraEKFNS3_7point2dES5_EJPS4_RKNS_12placeholders4__phILi1EEEEEENS_9allocatorISE_EEFS5_S5_EE8__targetB8ue170006Ev, symObjAddr: 0x41F0, symBinAddr: 0x100014CA0, symSize: 0x20 }
  - { offsetInCU: 0xE667, offset: 0x3CEE5, size: 0x8, addend: 0x0, symName: __ZNSt3__110__function6__funcINS_6__bindIMN4ezgl6cameraEKFNS3_7point2dES5_EJPS4_RKNS_12placeholders4__phILi1EEEEEENS_9allocatorISE_EEFS5_S5_EEC1B8ue170006ERKSE_OSG_, symObjAddr: 0x4210, symBinAddr: 0x100014CC0, symSize: 0x30 }
  - { offsetInCU: 0xE6AF, offset: 0x3CF2D, size: 0x8, addend: 0x0, symName: __ZNSt3__110unique_ptrINS_10__function6__funcINS_6__bindIMN4ezgl6cameraEKFNS4_7point2dES6_EJPS5_RKNS_12placeholders4__phILi1EEEEEENS_9allocatorISF_EEFS6_S6_EEENS_22__allocator_destructorINSG_ISJ_EEEEE7releaseB8ue170006Ev, symObjAddr: 0x4240, symBinAddr: 0x100014CF0, symSize: 0x40 }
  - { offsetInCU: 0xE6E4, offset: 0x3CF62, size: 0x8, addend: 0x0, symName: __ZNSt3__110unique_ptrINS_10__function6__funcINS_6__bindIMN4ezgl6cameraEKFNS4_7point2dES6_EJPS5_RKNS_12placeholders4__phILi1EEEEEENS_9allocatorISF_EEFS6_S6_EEENS_22__allocator_destructorINSG_ISJ_EEEEED1B8ue170006Ev, symObjAddr: 0x4280, symBinAddr: 0x100014D30, symSize: 0x20 }
  - { offsetInCU: 0xE70E, offset: 0x3CF8C, size: 0x8, addend: 0x0, symName: __ZNKSt3__117__compressed_pairINS_6__bindIMN4ezgl6cameraEKFNS2_7point2dES4_EJPS3_RKNS_12placeholders4__phILi1EEEEEENS_9allocatorISD_EEE6secondB8ue170006Ev, symObjAddr: 0x42A0, symBinAddr: 0x100014D50, symSize: 0x20 }
  - { offsetInCU: 0xE734, offset: 0x3CFB2, size: 0x8, addend: 0x0, symName: __ZNKSt3__122__compressed_pair_elemINS_9allocatorINS_6__bindIMN4ezgl6cameraEKFNS3_7point2dES5_EJPS4_RKNS_12placeholders4__phILi1EEEEEEEELi1ELb1EE5__getB8ue170006Ev, symObjAddr: 0x42C0, symBinAddr: 0x100014D70, symSize: 0x10 }
  - { offsetInCU: 0xE764, offset: 0x3CFE2, size: 0x8, addend: 0x0, symName: __ZNSt3__116allocator_traitsINS_9allocatorINS_10__function6__funcINS_6__bindIMN4ezgl6cameraEKFNS5_7point2dES7_EJPS6_RKNS_12placeholders4__phILi1EEEEEENS1_ISG_EEFS7_S7_EEEEEE8max_sizeB8ue170006ISK_vEEmRKSK_, symObjAddr: 0x42D0, symBinAddr: 0x100014D80, symSize: 0x20 }
  - { offsetInCU: 0xE792, offset: 0x3D010, size: 0x8, addend: 0x0, symName: __ZNKSt3__19allocatorINS_10__function6__funcINS_6__bindIMN4ezgl6cameraEKFNS4_7point2dES6_EJPS5_RKNS_12placeholders4__phILi1EEEEEENS0_ISF_EEFS6_S6_EEEE8max_sizeB8ue170006Ev, symObjAddr: 0x42F0, symBinAddr: 0x100014DA0, symSize: 0x20 }
  - { offsetInCU: 0xE7B8, offset: 0x3D036, size: 0x8, addend: 0x0, symName: __ZNSt3__122__allocator_destructorINS_9allocatorINS_10__function6__funcINS_6__bindIMN4ezgl6cameraEKFNS5_7point2dES7_EJPS6_RKNS_12placeholders4__phILi1EEEEEENS1_ISG_EEFS7_S7_EEEEEEC2B8ue170006ERSK_m, symObjAddr: 0x4310, symBinAddr: 0x100014DC0, symSize: 0x30 }
  - { offsetInCU: 0xE7FE, offset: 0x3D07C, size: 0x8, addend: 0x0, symName: __ZNSt3__110unique_ptrINS_10__function6__funcINS_6__bindIMN4ezgl6cameraEKFNS4_7point2dES6_EJPS5_RKNS_12placeholders4__phILi1EEEEEENS_9allocatorISF_EEFS6_S6_EEENS_22__allocator_destructorINSG_ISJ_EEEEEC2B8ue170006ILb1EvEEPSJ_NS_16__dependent_typeINS_27__unique_ptr_deleter_sfinaeISM_EEXT_EE20__good_rval_ref_typeE, symObjAddr: 0x4340, symBinAddr: 0x100014DF0, symSize: 0x40 }
  - { offsetInCU: 0xE84F, offset: 0x3D0CD, size: 0x8, addend: 0x0, symName: __ZNSt3__117__compressed_pairIPNS_10__function6__funcINS_6__bindIMN4ezgl6cameraEKFNS4_7point2dES6_EJPS5_RKNS_12placeholders4__phILi1EEEEEENS_9allocatorISF_EEFS6_S6_EEENS_22__allocator_destructorINSG_ISJ_EEEEEC1B8ue170006IRSK_SN_EEOT_OT0_, symObjAddr: 0x4380, symBinAddr: 0x100014E30, symSize: 0x30 }
  - { offsetInCU: 0xE8A7, offset: 0x3D125, size: 0x8, addend: 0x0, symName: __ZNSt3__117__compressed_pairIPNS_10__function6__funcINS_6__bindIMN4ezgl6cameraEKFNS4_7point2dES6_EJPS5_RKNS_12placeholders4__phILi1EEEEEENS_9allocatorISF_EEFS6_S6_EEENS_22__allocator_destructorINSG_ISJ_EEEEEC2B8ue170006IRSK_SN_EEOT_OT0_, symObjAddr: 0x43B0, symBinAddr: 0x100014E60, symSize: 0x40 }
  - { offsetInCU: 0xE8FF, offset: 0x3D17D, size: 0x8, addend: 0x0, symName: __ZNSt3__122__compressed_pair_elemIPNS_10__function6__funcINS_6__bindIMN4ezgl6cameraEKFNS4_7point2dES6_EJPS5_RKNS_12placeholders4__phILi1EEEEEENS_9allocatorISF_EEFS6_S6_EEELi0ELb0EEC2B8ue170006IRSK_vEEOT_, symObjAddr: 0x43F0, symBinAddr: 0x100014EA0, symSize: 0x20 }
  - { offsetInCU: 0xE941, offset: 0x3D1BF, size: 0x8, addend: 0x0, symName: __ZNSt3__122__compressed_pair_elemINS_22__allocator_destructorINS_9allocatorINS_10__function6__funcINS_6__bindIMN4ezgl6cameraEKFNS6_7point2dES8_EJPS7_RKNS_12placeholders4__phILi1EEEEEENS2_ISH_EEFS8_S8_EEEEEEELi1ELb0EEC2B8ue170006ISM_vEEOT_, symObjAddr: 0x4410, symBinAddr: 0x100014EC0, symSize: 0x30 }
  - { offsetInCU: 0xE983, offset: 0x3D201, size: 0x8, addend: 0x0, symName: __ZNKSt3__117__compressed_pairIPNS_10__function6__funcINS_6__bindIMN4ezgl6cameraEKFNS4_7point2dES6_EJPS5_RKNS_12placeholders4__phILi1EEEEEENS_9allocatorISF_EEFS6_S6_EEENS_22__allocator_destructorINSG_ISJ_EEEEE5firstB8ue170006Ev, symObjAddr: 0x4440, symBinAddr: 0x100014EF0, symSize: 0x20 }
  - { offsetInCU: 0xE9A9, offset: 0x3D227, size: 0x8, addend: 0x0, symName: __ZNKSt3__122__compressed_pair_elemIPNS_10__function6__funcINS_6__bindIMN4ezgl6cameraEKFNS4_7point2dES6_EJPS5_RKNS_12placeholders4__phILi1EEEEEENS_9allocatorISF_EEFS6_S6_EEELi0ELb0EE5__getB8ue170006Ev, symObjAddr: 0x4460, symBinAddr: 0x100014F10, symSize: 0x10 }
  - { offsetInCU: 0xE9CF, offset: 0x3D24D, size: 0x8, addend: 0x0, symName: __ZNKSt3__117__compressed_pairINS_6__bindIMN4ezgl6cameraEKFNS2_7point2dES4_EJPS3_RKNS_12placeholders4__phILi1EEEEEENS_9allocatorISD_EEE5firstB8ue170006Ev, symObjAddr: 0x4470, symBinAddr: 0x100014F20, symSize: 0x20 }
  - { offsetInCU: 0xE9F5, offset: 0x3D273, size: 0x8, addend: 0x0, symName: __ZNKSt3__122__compressed_pair_elemINS_6__bindIMN4ezgl6cameraEKFNS2_7point2dES4_EJPS3_RKNS_12placeholders4__phILi1EEEEEELi0ELb0EE5__getB8ue170006Ev, symObjAddr: 0x4490, symBinAddr: 0x100014F40, symSize: 0x10 }
  - { offsetInCU: 0xEA1B, offset: 0x3D299, size: 0x8, addend: 0x0, symName: __ZNSt3__110__function6__funcINS_6__bindIMN4ezgl6cameraEKFNS3_7point2dES5_EJPS4_RKNS_12placeholders4__phILi1EEEEEENS_9allocatorISE_EEFS5_S5_EEC2B8ue170006ERKSE_OSG_, symObjAddr: 0x44A0, symBinAddr: 0x100014F50, symSize: 0x70 }
  - { offsetInCU: 0xEA63, offset: 0x3D2E1, size: 0x8, addend: 0x0, symName: __ZNSt3__110__function12__alloc_funcINS_6__bindIMN4ezgl6cameraEKFNS3_7point2dES5_EJPS4_RKNS_12placeholders4__phILi1EEEEEENS_9allocatorISE_EEFS5_S5_EEC1B8ue170006ERKSE_OSG_, symObjAddr: 0x4510, symBinAddr: 0x100014FC0, symSize: 0x30 }
  - { offsetInCU: 0xEAA9, offset: 0x3D327, size: 0x8, addend: 0x0, symName: __ZNSt3__110__function12__alloc_funcINS_6__bindIMN4ezgl6cameraEKFNS3_7point2dES5_EJPS4_RKNS_12placeholders4__phILi1EEEEEENS_9allocatorISE_EEFS5_S5_EEC2B8ue170006ERKSE_OSG_, symObjAddr: 0x4540, symBinAddr: 0x100014FF0, symSize: 0x50 }
  - { offsetInCU: 0xEAEF, offset: 0x3D36D, size: 0x8, addend: 0x0, symName: __ZNSt3__117__compressed_pairINS_6__bindIMN4ezgl6cameraEKFNS2_7point2dES4_EJPS3_RKNS_12placeholders4__phILi1EEEEEENS_9allocatorISD_EEEC1B8ue170006IJRKSD_EJOSF_EEENS_21piecewise_construct_tENS_5tupleIJDpT_EEENSM_IJDpT0_EEE, symObjAddr: 0x45C0, symBinAddr: 0x100015070, symSize: 0x30 }
  - { offsetInCU: 0xEB59, offset: 0x3D3D7, size: 0x8, addend: 0x0, symName: __ZNSt3__15tupleIJRKNS_6__bindIMN4ezgl6cameraEKFNS2_7point2dES4_EJPS3_RKNS_12placeholders4__phILi1EEEEEEEEC1B8ue170006INS_4_AndELi0EEESF_, symObjAddr: 0x45F0, symBinAddr: 0x1000150A0, symSize: 0x30 }
  - { offsetInCU: 0xEBA2, offset: 0x3D420, size: 0x8, addend: 0x0, symName: __ZNSt3__15tupleIJRKNS_6__bindIMN4ezgl6cameraEKFNS2_7point2dES4_EJPS3_RKNS_12placeholders4__phILi1EEEEEEEEC2B8ue170006INS_4_AndELi0EEESF_, symObjAddr: 0x4620, symBinAddr: 0x1000150D0, symSize: 0x30 }
  - { offsetInCU: 0xEBEB, offset: 0x3D469, size: 0x8, addend: 0x0, symName: __ZNSt3__112__tuple_implINS_15__tuple_indicesIJLm0EEEEJRKNS_6__bindIMN4ezgl6cameraEKFNS4_7point2dES6_EJPS5_RKNS_12placeholders4__phILi1EEEEEEEEC1B8ue170006IJLm0EEJSH_EJEJEJSH_EEENS1_IJXspT_EEEENS_13__tuple_typesIJDpT0_EEENS1_IJXspT1_EEEENSL_IJDpT2_EEEDpOT3_, symObjAddr: 0x4650, symBinAddr: 0x100015100, symSize: 0x30 }
  - { offsetInCU: 0xEC7C, offset: 0x3D4FA, size: 0x8, addend: 0x0, symName: __ZNSt3__112__tuple_implINS_15__tuple_indicesIJLm0EEEEJRKNS_6__bindIMN4ezgl6cameraEKFNS4_7point2dES6_EJPS5_RKNS_12placeholders4__phILi1EEEEEEEEC2B8ue170006IJLm0EEJSH_EJEJEJSH_EEENS1_IJXspT_EEEENS_13__tuple_typesIJDpT0_EEENS1_IJXspT1_EEEENSL_IJDpT2_EEEDpOT3_, symObjAddr: 0x4680, symBinAddr: 0x100015130, symSize: 0x30 }
  - { offsetInCU: 0xED0D, offset: 0x3D58B, size: 0x8, addend: 0x0, symName: __ZNSt3__112__tuple_leafILm0ERKNS_6__bindIMN4ezgl6cameraEKFNS2_7point2dES4_EJPS3_RKNS_12placeholders4__phILi1EEEEEELb0EEC2B8ue170006ISF_vEEOT_, symObjAddr: 0x46B0, symBinAddr: 0x100015160, symSize: 0x20 }
  - { offsetInCU: 0xED50, offset: 0x3D5CE, size: 0x8, addend: 0x0, symName: __ZNSt3__117__compressed_pairINS_6__bindIMN4ezgl6cameraEKFNS2_7point2dES4_EJPS3_RKNS_12placeholders4__phILi1EEEEEENS_9allocatorISD_EEEC2B8ue170006IJRKSD_EJOSF_EEENS_21piecewise_construct_tENS_5tupleIJDpT_EEENSM_IJDpT0_EEE, symObjAddr: 0x46D0, symBinAddr: 0x100015180, symSize: 0x50 }
  - { offsetInCU: 0xEDBA, offset: 0x3D638, size: 0x8, addend: 0x0, symName: __ZNSt3__122__compressed_pair_elemINS_6__bindIMN4ezgl6cameraEKFNS2_7point2dES4_EJPS3_RKNS_12placeholders4__phILi1EEEEEELi0ELb0EEC2B8ue170006IJRKSD_EJLm0EEEENS_21piecewise_construct_tENS_5tupleIJDpT_EEENS_15__tuple_indicesIJXspT0_EEEE, symObjAddr: 0x4720, symBinAddr: 0x1000151D0, symSize: 0x50 }
  - { offsetInCU: 0xEE1F, offset: 0x3D69D, size: 0x8, addend: 0x0, symName: __ZNSt3__112__tuple_leafILm0ERKNS_6__bindIMN4ezgl6cameraEKFNS2_7point2dES4_EJPS3_RKNS_12placeholders4__phILi1EEEEEELb0EE3getB8ue170006Ev, symObjAddr: 0x4790, symBinAddr: 0x100015240, symSize: 0x20 }
  - { offsetInCU: 0xEE45, offset: 0x3D6C3, size: 0x8, addend: 0x0, symName: __ZNSt3__117__compressed_pairIPNS_10__function6__funcINS_6__bindIMN4ezgl6cameraEKFNS4_7point2dES6_EJPS5_RKNS_12placeholders4__phILi1EEEEEENS_9allocatorISF_EEFS6_S6_EEENS_22__allocator_destructorINSG_ISJ_EEEEE5firstB8ue170006Ev, symObjAddr: 0x47B0, symBinAddr: 0x100015260, symSize: 0x20 }
  - { offsetInCU: 0xEE6B, offset: 0x3D6E9, size: 0x8, addend: 0x0, symName: __ZNSt3__122__compressed_pair_elemIPNS_10__function6__funcINS_6__bindIMN4ezgl6cameraEKFNS4_7point2dES6_EJPS5_RKNS_12placeholders4__phILi1EEEEEENS_9allocatorISF_EEFS6_S6_EEELi0ELb0EE5__getB8ue170006Ev, symObjAddr: 0x47D0, symBinAddr: 0x100015280, symSize: 0x10 }
  - { offsetInCU: 0xEE91, offset: 0x3D70F, size: 0x8, addend: 0x0, symName: __ZNSt3__110unique_ptrINS_10__function6__funcINS_6__bindIMN4ezgl6cameraEKFNS4_7point2dES6_EJPS5_RKNS_12placeholders4__phILi1EEEEEENS_9allocatorISF_EEFS6_S6_EEENS_22__allocator_destructorINSG_ISJ_EEEEED2B8ue170006Ev, symObjAddr: 0x47E0, symBinAddr: 0x100015290, symSize: 0x20 }
  - { offsetInCU: 0xEEBB, offset: 0x3D739, size: 0x8, addend: 0x0, symName: __ZNSt3__110unique_ptrINS_10__function6__funcINS_6__bindIMN4ezgl6cameraEKFNS4_7point2dES6_EJPS5_RKNS_12placeholders4__phILi1EEEEEENS_9allocatorISF_EEFS6_S6_EEENS_22__allocator_destructorINSG_ISJ_EEEEE5resetB8ue170006EPSJ_, symObjAddr: 0x4800, symBinAddr: 0x1000152B0, symSize: 0x70 }
  - { offsetInCU: 0xEEFF, offset: 0x3D77D, size: 0x8, addend: 0x0, symName: __ZNSt3__117__compressed_pairIPNS_10__function6__funcINS_6__bindIMN4ezgl6cameraEKFNS4_7point2dES6_EJPS5_RKNS_12placeholders4__phILi1EEEEEENS_9allocatorISF_EEFS6_S6_EEENS_22__allocator_destructorINSG_ISJ_EEEEE6secondB8ue170006Ev, symObjAddr: 0x4870, symBinAddr: 0x100015320, symSize: 0x20 }
  - { offsetInCU: 0xEF25, offset: 0x3D7A3, size: 0x8, addend: 0x0, symName: __ZNSt3__122__allocator_destructorINS_9allocatorINS_10__function6__funcINS_6__bindIMN4ezgl6cameraEKFNS5_7point2dES7_EJPS6_RKNS_12placeholders4__phILi1EEEEEENS1_ISG_EEFS7_S7_EEEEEEclB8ue170006EPSJ_, symObjAddr: 0x4890, symBinAddr: 0x100015340, symSize: 0x30 }
  - { offsetInCU: 0xEF59, offset: 0x3D7D7, size: 0x8, addend: 0x0, symName: __ZNSt3__122__compressed_pair_elemINS_22__allocator_destructorINS_9allocatorINS_10__function6__funcINS_6__bindIMN4ezgl6cameraEKFNS6_7point2dES8_EJPS7_RKNS_12placeholders4__phILi1EEEEEENS2_ISH_EEFS8_S8_EEEEEEELi1ELb0EE5__getB8ue170006Ev, symObjAddr: 0x48C0, symBinAddr: 0x100015370, symSize: 0x10 }
  - { offsetInCU: 0xEF7F, offset: 0x3D7FD, size: 0x8, addend: 0x0, symName: __ZNSt3__116allocator_traitsINS_9allocatorINS_10__function6__funcINS_6__bindIMN4ezgl6cameraEKFNS5_7point2dES7_EJPS6_RKNS_12placeholders4__phILi1EEEEEENS1_ISG_EEFS7_S7_EEEEEE10deallocateB8ue170006ERSK_PSJ_m, symObjAddr: 0x48D0, symBinAddr: 0x100015380, symSize: 0x30 }
  - { offsetInCU: 0xEFC1, offset: 0x3D83F, size: 0x8, addend: 0x0, symName: __ZNSt3__19allocatorINS_10__function6__funcINS_6__bindIMN4ezgl6cameraEKFNS4_7point2dES6_EJPS5_RKNS_12placeholders4__phILi1EEEEEENS0_ISF_EEFS6_S6_EEEE10deallocateB8ue170006EPSI_m, symObjAddr: 0x4900, symBinAddr: 0x1000153B0, symSize: 0x40 }
  - { offsetInCU: 0xF003, offset: 0x3D881, size: 0x8, addend: 0x0, symName: __ZNSt3__110__function6__funcINS_6__bindIMN4ezgl6cameraEKFNS3_7point2dES5_EJPS4_RKNS_12placeholders4__phILi1EEEEEENS_9allocatorISE_EEFS5_S5_EEC1B8ue170006ERKSE_RKSG_, symObjAddr: 0x4940, symBinAddr: 0x1000153F0, symSize: 0x30 }
  - { offsetInCU: 0xF04B, offset: 0x3D8C9, size: 0x8, addend: 0x0, symName: __ZNSt3__110__function6__funcINS_6__bindIMN4ezgl6cameraEKFNS3_7point2dES5_EJPS4_RKNS_12placeholders4__phILi1EEEEEENS_9allocatorISE_EEFS5_S5_EEC2B8ue170006ERKSE_RKSG_, symObjAddr: 0x4970, symBinAddr: 0x100015420, symSize: 0x70 }
  - { offsetInCU: 0xF093, offset: 0x3D911, size: 0x8, addend: 0x0, symName: __ZNSt3__110__function12__alloc_funcINS_6__bindIMN4ezgl6cameraEKFNS3_7point2dES5_EJPS4_RKNS_12placeholders4__phILi1EEEEEENS_9allocatorISE_EEFS5_S5_EEC1B8ue170006ERKSE_RKSG_, symObjAddr: 0x49E0, symBinAddr: 0x100015490, symSize: 0x30 }
  - { offsetInCU: 0xF0D9, offset: 0x3D957, size: 0x8, addend: 0x0, symName: __ZNSt3__110__function12__alloc_funcINS_6__bindIMN4ezgl6cameraEKFNS3_7point2dES5_EJPS4_RKNS_12placeholders4__phILi1EEEEEENS_9allocatorISE_EEFS5_S5_EEC2B8ue170006ERKSE_RKSG_, symObjAddr: 0x4A10, symBinAddr: 0x1000154C0, symSize: 0x50 }
  - { offsetInCU: 0xF11F, offset: 0x3D99D, size: 0x8, addend: 0x0, symName: __ZNSt3__117__compressed_pairINS_6__bindIMN4ezgl6cameraEKFNS2_7point2dES4_EJPS3_RKNS_12placeholders4__phILi1EEEEEENS_9allocatorISD_EEEC1B8ue170006IJRKSD_EJRKSF_EEENS_21piecewise_construct_tENS_5tupleIJDpT_EEENSN_IJDpT0_EEE, symObjAddr: 0x4A90, symBinAddr: 0x100015540, symSize: 0x30 }
  - { offsetInCU: 0xF189, offset: 0x3DA07, size: 0x8, addend: 0x0, symName: __ZNSt3__15tupleIJRKNS_9allocatorINS_6__bindIMN4ezgl6cameraEKFNS3_7point2dES5_EJPS4_RKNS_12placeholders4__phILi1EEEEEEEEEEC1B8ue170006INS_4_AndELi0EEESH_, symObjAddr: 0x4AC0, symBinAddr: 0x100015570, symSize: 0x30 }
  - { offsetInCU: 0xF1D2, offset: 0x3DA50, size: 0x8, addend: 0x0, symName: __ZNSt3__15tupleIJRKNS_9allocatorINS_6__bindIMN4ezgl6cameraEKFNS3_7point2dES5_EJPS4_RKNS_12placeholders4__phILi1EEEEEEEEEEC2B8ue170006INS_4_AndELi0EEESH_, symObjAddr: 0x4AF0, symBinAddr: 0x1000155A0, symSize: 0x30 }
  - { offsetInCU: 0xF21B, offset: 0x3DA99, size: 0x8, addend: 0x0, symName: __ZNSt3__112__tuple_implINS_15__tuple_indicesIJLm0EEEEJRKNS_9allocatorINS_6__bindIMN4ezgl6cameraEKFNS5_7point2dES7_EJPS6_RKNS_12placeholders4__phILi1EEEEEEEEEEC1B8ue170006IJLm0EEJSJ_EJEJEJSJ_EEENS1_IJXspT_EEEENS_13__tuple_typesIJDpT0_EEENS1_IJXspT1_EEEENSN_IJDpT2_EEEDpOT3_, symObjAddr: 0x4B20, symBinAddr: 0x1000155D0, symSize: 0x30 }
  - { offsetInCU: 0xF2AC, offset: 0x3DB2A, size: 0x8, addend: 0x0, symName: __ZNSt3__112__tuple_implINS_15__tuple_indicesIJLm0EEEEJRKNS_9allocatorINS_6__bindIMN4ezgl6cameraEKFNS5_7point2dES7_EJPS6_RKNS_12placeholders4__phILi1EEEEEEEEEEC2B8ue170006IJLm0EEJSJ_EJEJEJSJ_EEENS1_IJXspT_EEEENS_13__tuple_typesIJDpT0_EEENS1_IJXspT1_EEEENSN_IJDpT2_EEEDpOT3_, symObjAddr: 0x4B50, symBinAddr: 0x100015600, symSize: 0x30 }
  - { offsetInCU: 0xF33D, offset: 0x3DBBB, size: 0x8, addend: 0x0, symName: __ZNSt3__112__tuple_leafILm0ERKNS_9allocatorINS_6__bindIMN4ezgl6cameraEKFNS3_7point2dES5_EJPS4_RKNS_12placeholders4__phILi1EEEEEEEELb0EEC2B8ue170006ISH_vEEOT_, symObjAddr: 0x4B80, symBinAddr: 0x100015630, symSize: 0x20 }
  - { offsetInCU: 0xF380, offset: 0x3DBFE, size: 0x8, addend: 0x0, symName: __ZNSt3__117__compressed_pairINS_6__bindIMN4ezgl6cameraEKFNS2_7point2dES4_EJPS3_RKNS_12placeholders4__phILi1EEEEEENS_9allocatorISD_EEEC2B8ue170006IJRKSD_EJRKSF_EEENS_21piecewise_construct_tENS_5tupleIJDpT_EEENSN_IJDpT0_EEE, symObjAddr: 0x4BA0, symBinAddr: 0x100015650, symSize: 0x50 }
  - { offsetInCU: 0xF3EA, offset: 0x3DC68, size: 0x8, addend: 0x0, symName: __ZNSt3__122__compressed_pair_elemINS_9allocatorINS_6__bindIMN4ezgl6cameraEKFNS3_7point2dES5_EJPS4_RKNS_12placeholders4__phILi1EEEEEEEELi1ELb1EEC2B8ue170006IJRKSF_EJLm0EEEENS_21piecewise_construct_tENS_5tupleIJDpT_EEENS_15__tuple_indicesIJXspT0_EEEE, symObjAddr: 0x4BF0, symBinAddr: 0x1000156A0, symSize: 0x20 }
  - { offsetInCU: 0xF44F, offset: 0x3DCCD, size: 0x8, addend: 0x0, symName: __ZNSt3__112__tuple_leafILm0ERKNS_9allocatorINS_6__bindIMN4ezgl6cameraEKFNS3_7point2dES5_EJPS4_RKNS_12placeholders4__phILi1EEEEEEEELb0EE3getB8ue170006Ev, symObjAddr: 0x4C30, symBinAddr: 0x1000156E0, symSize: 0x20 }
  - { offsetInCU: 0xF475, offset: 0x3DCF3, size: 0x8, addend: 0x0, symName: __ZNSt3__110__function12__alloc_funcINS_6__bindIMN4ezgl6cameraEKFNS3_7point2dES5_EJPS4_RKNS_12placeholders4__phILi1EEEEEENS_9allocatorISE_EEFS5_S5_EE7destroyB8ue170006Ev, symObjAddr: 0x4C50, symBinAddr: 0x100015700, symSize: 0x10 }
  - { offsetInCU: 0xF49B, offset: 0x3DD19, size: 0x8, addend: 0x0, symName: __ZNSt3__110__function12__alloc_funcINS_6__bindIMN4ezgl6cameraEKFNS3_7point2dES5_EJPS4_RKNS_12placeholders4__phILi1EEEEEENS_9allocatorISE_EEFS5_S5_EEclB8ue170006EOS5_, symObjAddr: 0x4C60, symBinAddr: 0x100015710, symSize: 0x40 }
  - { offsetInCU: 0xF4CF, offset: 0x3DD4D, size: 0x8, addend: 0x0, symName: __ZNSt3__128__invoke_void_return_wrapperIN4ezgl7point2dELb0EE6__callB8ue170006IJRNS_6__bindIMNS1_6cameraEKFS2_S2_EJPS6_RKNS_12placeholders4__phILi1EEEEEES2_EEES2_DpOT_, symObjAddr: 0x4CA0, symBinAddr: 0x100015750, symSize: 0x40 }
  - { offsetInCU: 0xF512, offset: 0x3DD90, size: 0x8, addend: 0x0, symName: __ZNSt3__117__compressed_pairINS_6__bindIMN4ezgl6cameraEKFNS2_7point2dES4_EJPS3_RKNS_12placeholders4__phILi1EEEEEENS_9allocatorISD_EEE5firstB8ue170006Ev, symObjAddr: 0x4CE0, symBinAddr: 0x100015790, symSize: 0x20 }
  - { offsetInCU: 0xF538, offset: 0x3DDB6, size: 0x8, addend: 0x0, symName: __ZNSt3__16__bindIMN4ezgl6cameraEKFNS1_7point2dES3_EJPS2_RKNS_12placeholders4__phILi1EEEEEclB8ue170006IJS3_EEENS_13__bind_returnIS5_NS_5tupleIJS6_S9_EEENSF_IJDpOT_EEEXsr22__is_valid_bind_returnIS5_SG_SK_EE5valueEE4typeESJ_, symObjAddr: 0x4D40, symBinAddr: 0x1000157F0, symSize: 0x60 }
  - { offsetInCU: 0xF578, offset: 0x3DDF6, size: 0x8, addend: 0x0, symName: __ZNSt3__112__tuple_leafILm0EPN4ezgl6cameraELb0EE3getB8ue170006Ev, symObjAddr: 0x4F20, symBinAddr: 0x1000159D0, symSize: 0x10 }
  - { offsetInCU: 0xF59E, offset: 0x3DE1C, size: 0x8, addend: 0x0, symName: __ZNSt3__122__compressed_pair_elemINS_6__bindIMN4ezgl6cameraEKFNS2_7point2dES4_EJPS3_RKNS_12placeholders4__phILi1EEEEEELi0ELb0EE5__getB8ue170006Ev, symObjAddr: 0x4F30, symBinAddr: 0x1000159E0, symSize: 0xE }
  - { offsetInCU: 0x26, offset: 0x3DFDE, size: 0x8, addend: 0x0, symName: __ZN4ezgl7zoom_inEPNS_6canvasEd, symObjAddr: 0x0, symBinAddr: 0x1000159F0, symSize: 0x130 }
  - { offsetInCU: 0x39, offset: 0x3DFF1, size: 0x8, addend: 0x0, symName: __ZN4ezgl7zoom_inEPNS_6canvasEd, symObjAddr: 0x0, symBinAddr: 0x1000159F0, symSize: 0x130 }
  - { offsetInCU: 0x7C3, offset: 0x3E77B, size: 0x8, addend: 0x0, symName: __ZN4ezglL13zoom_in_worldENS_7point2dENS_9rectangleEd, symObjAddr: 0x1D0, symBinAddr: 0x100015B50, symSize: 0x170 }
  - { offsetInCU: 0x844, offset: 0x3E7FC, size: 0x8, addend: 0x0, symName: __ZN4ezgl7zoom_inEPNS_6canvasENS_7point2dEd, symObjAddr: 0x340, symBinAddr: 0x100015CC0, symSize: 0x160 }
  - { offsetInCU: 0x897, offset: 0x3E84F, size: 0x8, addend: 0x0, symName: __ZN4ezgl8zoom_outEPNS_6canvasEd, symObjAddr: 0x4A0, symBinAddr: 0x100015E20, symSize: 0x130 }
  - { offsetInCU: 0x8EA, offset: 0x3E8A2, size: 0x8, addend: 0x0, symName: __ZN4ezglL14zoom_out_worldENS_7point2dENS_9rectangleEd, symObjAddr: 0x5D0, symBinAddr: 0x100015F50, symSize: 0x1A0 }
  - { offsetInCU: 0x96B, offset: 0x3E923, size: 0x8, addend: 0x0, symName: __ZN4ezgl8zoom_outEPNS_6canvasENS_7point2dEd, symObjAddr: 0x770, symBinAddr: 0x1000160F0, symSize: 0x160 }
  - { offsetInCU: 0x9BE, offset: 0x3E976, size: 0x8, addend: 0x0, symName: __ZN4ezgl8zoom_fitEPNS_6canvasENS_9rectangleE, symObjAddr: 0x8D0, symBinAddr: 0x100016250, symSize: 0x80 }
  - { offsetInCU: 0x9F4, offset: 0x3E9AC, size: 0x8, addend: 0x0, symName: __ZN4ezgl9translateEPNS_6canvasEdd, symObjAddr: 0x950, symBinAddr: 0x1000162D0, symSize: 0xC0 }
  - { offsetInCU: 0xA46, offset: 0x3E9FE, size: 0x8, addend: 0x0, symName: __ZN4ezgl12translate_upEPNS_6canvasEd, symObjAddr: 0xA80, symBinAddr: 0x100016390, symSize: 0x50 }
  - { offsetInCU: 0xA98, offset: 0x3EA50, size: 0x8, addend: 0x0, symName: __ZN4ezgl14translate_downEPNS_6canvasEd, symObjAddr: 0xB10, symBinAddr: 0x1000163E0, symSize: 0x70 }
  - { offsetInCU: 0xAEA, offset: 0x3EAA2, size: 0x8, addend: 0x0, symName: __ZN4ezgl14translate_leftEPNS_6canvasEd, symObjAddr: 0xB80, symBinAddr: 0x100016450, symSize: 0x70 }
  - { offsetInCU: 0xB3C, offset: 0x3EAF4, size: 0x8, addend: 0x0, symName: __ZN4ezgl15translate_rightEPNS_6canvasEd, symObjAddr: 0xC30, symBinAddr: 0x1000164C0, symSize: 0x50 }
  - { offsetInCU: 0x5547, offset: 0x434FF, size: 0x8, addend: 0x0, symName: __ZNK4ezgl6camera9get_worldEv, symObjAddr: 0x150, symBinAddr: 0x100015B20, symSize: 0x30 }
  - { offsetInCU: 0x380B, offset: 0x46D44, size: 0x8, addend: 0x0, symName: __ZNSt3__125__throw_bad_function_callB8ue170006Ev, symObjAddr: 0x3C70, symBinAddr: 0x1000199C0, symSize: 0x40 }
  - { offsetInCU: 0x3A1B, offset: 0x46F54, size: 0x8, addend: 0x0, symName: __ZN4ezgl8renderer13set_line_dashENS_9line_dashE, symObjAddr: 0x300, symBinAddr: 0x1000167F0, symSize: 0x90 }
  - { offsetInCU: 0x3A41, offset: 0x46F7A, size: 0x8, addend: 0x0, symName: __ZZN4ezgl8renderer13set_line_dashENS_9line_dashEE6dashes, symObjAddr: 0x3F90, symBinAddr: 0x10001D030, symSize: 0x0 }
  - { offsetInCU: 0x5A89, offset: 0x48FC2, size: 0x8, addend: 0x0, symName: __ZN4ezgl8rendererC2EP6_cairoNSt3__18functionIFNS_7point2dES5_EEEPNS_6cameraEP14_cairo_surface, symObjAddr: 0x0, symBinAddr: 0x100016510, symSize: 0xA0 }
  - { offsetInCU: 0x5AEE, offset: 0x49027, size: 0x8, addend: 0x0, symName: __ZNSt3__18functionIFN4ezgl7point2dES2_EEC1EOS4_, symObjAddr: 0xA0, symBinAddr: 0x1000165B0, symSize: 0x30 }
  - { offsetInCU: 0x5B29, offset: 0x49062, size: 0x8, addend: 0x0, symName: __ZN4ezgl5colorC1Ehhhh, symObjAddr: 0xD0, symBinAddr: 0x1000165E0, symSize: 0x50 }
  - { offsetInCU: 0x5B8B, offset: 0x490C4, size: 0x8, addend: 0x0, symName: __ZN4ezgl8rendererC1EP6_cairoNSt3__18functionIFNS_7point2dES5_EEEPNS_6cameraEP14_cairo_surface, symObjAddr: 0x120, symBinAddr: 0x100016630, symSize: 0x40 }
  - { offsetInCU: 0x5BF0, offset: 0x49129, size: 0x8, addend: 0x0, symName: __ZN4ezgl8rendererD2Ev, symObjAddr: 0x160, symBinAddr: 0x100016670, symSize: 0x20 }
  - { offsetInCU: 0x5C1C, offset: 0x49155, size: 0x8, addend: 0x0, symName: __ZN4ezgl8rendererD1Ev, symObjAddr: 0x1A0, symBinAddr: 0x100016690, symSize: 0x20 }
  - { offsetInCU: 0x5C48, offset: 0x49181, size: 0x8, addend: 0x0, symName: __ZN4ezgl8renderer15update_rendererEP6_cairoP14_cairo_surface, symObjAddr: 0x1C0, symBinAddr: 0x1000166B0, symSize: 0x60 }
  - { offsetInCU: 0x5C8C, offset: 0x491C5, size: 0x8, addend: 0x0, symName: __ZN4ezgl8renderer9set_colorENS_5colorE, symObjAddr: 0x220, symBinAddr: 0x100016710, symSize: 0x40 }
  - { offsetInCU: 0x5CC2, offset: 0x491FB, size: 0x8, addend: 0x0, symName: __ZN4ezgl8renderer14set_line_widthEi, symObjAddr: 0x260, symBinAddr: 0x100016750, symSize: 0x60 }
  - { offsetInCU: 0x5CFA, offset: 0x49233, size: 0x8, addend: 0x0, symName: __ZN4ezgl8renderer12set_line_capENS_8line_capE, symObjAddr: 0x2C0, symBinAddr: 0x1000167B0, symSize: 0x40 }
  - { offsetInCU: 0x5D3E, offset: 0x49277, size: 0x8, addend: 0x0, symName: __ZN4ezgl8renderer21set_coordinate_systemENS_19t_coordinate_systemE, symObjAddr: 0x390, symBinAddr: 0x100016880, symSize: 0x20 }
  - { offsetInCU: 0x5D74, offset: 0x492AD, size: 0x8, addend: 0x0, symName: __ZN4ezgl8renderer17set_visible_worldENS_9rectangleE, symObjAddr: 0x3B0, symBinAddr: 0x1000168A0, symSize: 0x2A0 }
  - { offsetInCU: 0x5E3A, offset: 0x49373, size: 0x8, addend: 0x0, symName: __ZN4ezgl8renderer17get_visible_worldEv, symObjAddr: 0x7D0, symBinAddr: 0x100016B40, symSize: 0x140 }
  - { offsetInCU: 0x5E8E, offset: 0x493C7, size: 0x8, addend: 0x0, symName: __ZNK4ezgl6camera10get_screenEv, symObjAddr: 0x940, symBinAddr: 0x100016C80, symSize: 0x30 }
  - { offsetInCU: 0x5EB4, offset: 0x493ED, size: 0x8, addend: 0x0, symName: __ZNK4ezgl9rectangle11bottom_leftEv, symObjAddr: 0x9C0, symBinAddr: 0x100016CB0, symSize: 0x50 }
  - { offsetInCU: 0x5EDA, offset: 0x49413, size: 0x8, addend: 0x0, symName: __ZNK4ezgl6camera22get_world_scale_factorEv, symObjAddr: 0xA10, symBinAddr: 0x100016D00, symSize: 0x30 }
  - { offsetInCU: 0x5F00, offset: 0x49439, size: 0x8, addend: 0x0, symName: __ZN4ezgl8renderer18get_visible_screenEv, symObjAddr: 0xB80, symBinAddr: 0x100016D30, symSize: 0x30 }
  - { offsetInCU: 0x5F28, offset: 0x49461, size: 0x8, addend: 0x0, symName: __ZNK4ezgl6camera10get_widgetEv, symObjAddr: 0xBB0, symBinAddr: 0x100016D60, symSize: 0x30 }
  - { offsetInCU: 0x5F4E, offset: 0x49487, size: 0x8, addend: 0x0, symName: __ZN4ezgl8renderer15world_to_screenERKNS_9rectangleE, symObjAddr: 0xBE0, symBinAddr: 0x100016D90, symSize: 0x100 }
  - { offsetInCU: 0x5FA0, offset: 0x494D9, size: 0x8, addend: 0x0, symName: __ZNKSt3__18functionIFN4ezgl7point2dES2_EEclES2_, symObjAddr: 0xCE0, symBinAddr: 0x100016E90, symSize: 0x40 }
  - { offsetInCU: 0x5FD7, offset: 0x49510, size: 0x8, addend: 0x0, symName: __ZN4ezgl8renderer20rectangle_off_screenENS_9rectangleE, symObjAddr: 0xD20, symBinAddr: 0x100016ED0, symSize: 0x110 }
  - { offsetInCU: 0x601B, offset: 0x49554, size: 0x8, addend: 0x0, symName: __ZN4ezgl8renderer9set_colorEhhhh, symObjAddr: 0xEF0, symBinAddr: 0x100016FE0, symSize: 0xB0 }
  - { offsetInCU: 0x607B, offset: 0x495B4, size: 0x8, addend: 0x0, symName: __ZN4ezgl8renderer9set_colorENS_5colorEh, symObjAddr: 0xFA0, symBinAddr: 0x100017090, symSize: 0x40 }
  - { offsetInCU: 0x60BF, offset: 0x495F8, size: 0x8, addend: 0x0, symName: __ZN4ezgl8renderer13set_font_sizeEd, symObjAddr: 0xFE0, symBinAddr: 0x1000170D0, symSize: 0x30 }
  - { offsetInCU: 0x60F7, offset: 0x49630, size: 0x8, addend: 0x0, symName: __ZN4ezgl8renderer11format_fontERKNSt3__112basic_stringIcNS1_11char_traitsIcEENS1_9allocatorIcEEEENS_10font_slantENS_11font_weightE, symObjAddr: 0x1010, symBinAddr: 0x100017100, symSize: 0x50 }
  - { offsetInCU: 0x614D, offset: 0x49686, size: 0x8, addend: 0x0, symName: __ZN4ezgl8renderer11format_fontERKNSt3__112basic_stringIcNS1_11char_traitsIcEENS1_9allocatorIcEEEENS_10font_slantENS_11font_weightEd, symObjAddr: 0x1080, symBinAddr: 0x100017150, symSize: 0x50 }
  - { offsetInCU: 0x61B2, offset: 0x496EB, size: 0x8, addend: 0x0, symName: __ZN4ezgl8renderer17set_text_rotationEd, symObjAddr: 0x10D0, symBinAddr: 0x1000171A0, symSize: 0xB0 }
  - { offsetInCU: 0x61EA, offset: 0x49723, size: 0x8, addend: 0x0, symName: __ZN4ezgl8renderer23set_horiz_justificationENS_13justificationE, symObjAddr: 0x1180, symBinAddr: 0x100017250, symSize: 0x40 }
  - { offsetInCU: 0x6222, offset: 0x4975B, size: 0x8, addend: 0x0, symName: __ZN4ezgl8renderer22set_vert_justificationENS_13justificationE, symObjAddr: 0x11C0, symBinAddr: 0x100017290, symSize: 0x40 }
  - { offsetInCU: 0x625A, offset: 0x49793, size: 0x8, addend: 0x0, symName: __ZN4ezgl8renderer9draw_lineENS_7point2dES1_, symObjAddr: 0x1200, symBinAddr: 0x1000172D0, symSize: 0x1C0 }
  - { offsetInCU: 0x62A1, offset: 0x497DA, size: 0x8, addend: 0x0, symName: __ZN4ezgl8renderer14draw_rectangleENS_7point2dES1_, symObjAddr: 0x13C0, symBinAddr: 0x100017490, symSize: 0x100 }
  - { offsetInCU: 0x62E8, offset: 0x49821, size: 0x8, addend: 0x0, symName: __ZN4ezgl8renderer19draw_rectangle_pathENS_7point2dES1_b, symObjAddr: 0x14C0, symBinAddr: 0x100017590, symSize: 0x160 }
  - { offsetInCU: 0x633E, offset: 0x49877, size: 0x8, addend: 0x0, symName: __ZN4ezgl8renderer14draw_rectangleENS_7point2dEdd, symObjAddr: 0x1620, symBinAddr: 0x1000176F0, symSize: 0x120 }
  - { offsetInCU: 0x6394, offset: 0x498CD, size: 0x8, addend: 0x0, symName: __ZN4ezgl8renderer14draw_rectangleENS_9rectangleE, symObjAddr: 0x1740, symBinAddr: 0x100017810, symSize: 0x160 }
  - { offsetInCU: 0x63CC, offset: 0x49905, size: 0x8, addend: 0x0, symName: __ZN4ezgl8renderer14fill_rectangleENS_7point2dES1_, symObjAddr: 0x18A0, symBinAddr: 0x100017970, symSize: 0x110 }
  - { offsetInCU: 0x6413, offset: 0x4994C, size: 0x8, addend: 0x0, symName: __ZN4ezgl8renderer14fill_rectangleENS_7point2dEdd, symObjAddr: 0x19B0, symBinAddr: 0x100017A80, symSize: 0x120 }
  - { offsetInCU: 0x6469, offset: 0x499A2, size: 0x8, addend: 0x0, symName: __ZN4ezgl8renderer14fill_rectangleENS_9rectangleE, symObjAddr: 0x1AD0, symBinAddr: 0x100017BA0, symSize: 0x160 }
  - { offsetInCU: 0x64A1, offset: 0x499DA, size: 0x8, addend: 0x0, symName: __ZN4ezgl8renderer9fill_polyERKNSt3__16vectorINS_7point2dENS1_9allocatorIS3_EEEE, symObjAddr: 0x1C30, symBinAddr: 0x100017D00, symSize: 0x420 }
  - { offsetInCU: 0x6560, offset: 0x49A99, size: 0x8, addend: 0x0, symName: __ZNKSt3__16vectorIN4ezgl7point2dENS_9allocatorIS2_EEEixB8ue170006Em, symObjAddr: 0x2070, symBinAddr: 0x100018120, symSize: 0x20 }
  - { offsetInCU: 0x6597, offset: 0x49AD0, size: 0x8, addend: 0x0, symName: __ZN4ezgl8renderer17draw_elliptic_arcENS_7point2dEdddd, symObjAddr: 0x20F0, symBinAddr: 0x100018140, symSize: 0x140 }
  - { offsetInCU: 0x661B, offset: 0x49B54, size: 0x8, addend: 0x0, symName: __ZN4ezgl8renderer13draw_arc_pathENS_7point2dEddddb, symObjAddr: 0x2230, symBinAddr: 0x100018280, symSize: 0x340 }
  - { offsetInCU: 0x66BE, offset: 0x49BF7, size: 0x8, addend: 0x0, symName: __ZN4ezgl8renderer8draw_arcENS_7point2dEddd, symObjAddr: 0x2570, symBinAddr: 0x1000185C0, symSize: 0x120 }
  - { offsetInCU: 0x6723, offset: 0x49C5C, size: 0x8, addend: 0x0, symName: __ZN4ezgl8renderer17fill_elliptic_arcENS_7point2dEdddd, symObjAddr: 0x2690, symBinAddr: 0x1000186E0, symSize: 0x140 }
  - { offsetInCU: 0x67A7, offset: 0x49CE0, size: 0x8, addend: 0x0, symName: __ZN4ezgl8renderer8fill_arcENS_7point2dEddd, symObjAddr: 0x27D0, symBinAddr: 0x100018820, symSize: 0x120 }
  - { offsetInCU: 0x680C, offset: 0x49D45, size: 0x8, addend: 0x0, symName: __ZN4ezgl8renderer9draw_textENS_7point2dERKNSt3__112basic_stringIcNS2_11char_traitsIcEENS2_9allocatorIcEEEE, symObjAddr: 0x28F0, symBinAddr: 0x100018940, symSize: 0x60 }
  - { offsetInCU: 0x6853, offset: 0x49D8C, size: 0x8, addend: 0x0, symName: __ZN4ezgl8renderer9draw_textENS_7point2dERKNSt3__112basic_stringIcNS2_11char_traitsIcEENS2_9allocatorIcEEEEdd, symObjAddr: 0x2950, symBinAddr: 0x1000189A0, symSize: 0x960 }
  - { offsetInCU: 0x6917, offset: 0x49E50, size: 0x8, addend: 0x0, symName: __ZN4ezgl8renderer12draw_surfaceEP14_cairo_surfaceNS_7point2dEd, symObjAddr: 0x32B0, symBinAddr: 0x100019300, symSize: 0x430 }
  - { offsetInCU: 0x699B, offset: 0x49ED4, size: 0x8, addend: 0x0, symName: __ZN4ezgl8renderer8load_pngEPKc, symObjAddr: 0x36E0, symBinAddr: 0x100019730, symSize: 0x90 }
  - { offsetInCU: 0x69E0, offset: 0x49F19, size: 0x8, addend: 0x0, symName: __ZN4ezgl8renderer12free_surfaceEP14_cairo_surface, symObjAddr: 0x3770, symBinAddr: 0x1000197C0, symSize: 0x30 }
  - { offsetInCU: 0x6A07, offset: 0x49F40, size: 0x8, addend: 0x0, symName: __ZN4ezgl5colorC2Ehhhh, symObjAddr: 0x37A0, symBinAddr: 0x1000197F0, symSize: 0x40 }
  - { offsetInCU: 0x6A69, offset: 0x49FA2, size: 0x8, addend: 0x0, symName: __ZNSt3__18functionIFN4ezgl7point2dES2_EEC2EOS4_, symObjAddr: 0x3A30, symBinAddr: 0x100019830, symSize: 0x30 }
  - { offsetInCU: 0x6AA4, offset: 0x49FDD, size: 0x8, addend: 0x0, symName: __ZNSt3__110__function12__value_funcIFN4ezgl7point2dES3_EEC1B8ue170006EOS5_, symObjAddr: 0x3A60, symBinAddr: 0x100019860, symSize: 0x30 }
  - { offsetInCU: 0x6ADD, offset: 0x4A016, size: 0x8, addend: 0x0, symName: __ZNSt3__110__function12__value_funcIFN4ezgl7point2dES3_EEC2B8ue170006EOS5_, symObjAddr: 0x3A90, symBinAddr: 0x100019890, symSize: 0xC0 }
  - { offsetInCU: 0x6B16, offset: 0x4A04F, size: 0x8, addend: 0x0, symName: __ZNSt3__110__function12__value_funcIFN4ezgl7point2dES3_EE9__as_baseB8ue170006EPv, symObjAddr: 0x3B50, symBinAddr: 0x100019950, symSize: 0x10 }
  - { offsetInCU: 0x6B3A, offset: 0x4A073, size: 0x8, addend: 0x0, symName: __ZNKSt3__110__function12__value_funcIFN4ezgl7point2dES3_EEclB8ue170006EOS3_, symObjAddr: 0x3C10, symBinAddr: 0x100019960, symSize: 0x60 }
  - { offsetInCU: 0x6B74, offset: 0x4A0AD, size: 0x8, addend: 0x0, symName: __ZNSt3__117bad_function_callC1Ev, symObjAddr: 0x3CB0, symBinAddr: 0x100019A00, symSize: 0x20 }
  - { offsetInCU: 0x6BA0, offset: 0x4A0D9, size: 0x8, addend: 0x0, symName: __ZNSt3__117bad_function_callD1Ev, symObjAddr: 0x3CD0, symBinAddr: 0x100019A20, symSize: 0x20 }
  - { offsetInCU: 0x6BCA, offset: 0x4A103, size: 0x8, addend: 0x0, symName: __ZNSt3__117bad_function_callC2Ev, symObjAddr: 0x3CF0, symBinAddr: 0x100019A40, symSize: 0x40 }
  - { offsetInCU: 0x6BF6, offset: 0x4A12F, size: 0x8, addend: 0x0, symName: __ZNSt9exceptionC2B8ue170006Ev, symObjAddr: 0x3D30, symBinAddr: 0x100019A80, symSize: 0x20 }
  - { offsetInCU: 0x6C20, offset: 0x4A159, size: 0x8, addend: 0x0, symName: __ZNSt3__117bad_function_callD0Ev, symObjAddr: 0x3D50, symBinAddr: 0x100019AA0, symSize: 0x30 }
  - { offsetInCU: 0x6C4A, offset: 0x4A183, size: 0x8, addend: 0x0, symName: __ZNSt3__117bad_function_callD2Ev, symObjAddr: 0x3D80, symBinAddr: 0x100019AD0, symSize: 0x20 }
...
